(dp0
S'10,31,XX'
p1
(F0.858
F0.775
F1.135
F1.051
F127.8
F1.0
tp2
sS'24,31,XX'
p3
(F2.453
F-0.787
F1.303
F1.086
F54.5
F1.0
tp4
sS'2,32,XX'
p5
(F3.161
F-0.251
F1.342
F1.081
F53.5
F1.0
tp6
sS'30,17,YY'
p7
(F0.101
F3.336
F1.373
F1.148
F155.9
F1.0
tp8
sS'13,35,XX'
p9
(F1.205
F1.768
F1.181
F1.119
F103.5
F1.0
tp10
sS'27,27,XX'
p11
(F0.071
F-3.209
F1.421
F1.03
F18.0
F1.0
tp12
sS'30,8,YY'
p13
(F-1.725
F0.002
F1.16
F1.062
F11.3
F1.0
tp14
sS'2,23,XX'
p15
(F-2.456
F-0.7195
F1.208
F1.142
F28.4
F1.0
tp16
sS'16,28,XX'
p17
(F0.415
F-2.542
F1.308
F1.008
F30.1
F1.0
tp18
sS'27,21,YY'
p19
(F-2.099
F0.561
F1.188
F0.869
F167.7
F1.0
tp20
sS'14,24,XX'
p21
(F-1.796
F-1.203
F1.19
F1.123
F179.1
F1.0
tp22
sS'30,22,XX'
p23
(F-3.492
F0.047
F1.561
F1.262
F70.8
F1.0
tp24
sS'27,32,XX'
p25
(F3.031
F-0.26
F1.278
F1.056
F33.1
F1.0
tp26
sS'5,30,YY'
p27
(F1.753
F-1.397
F1.202
F1.11
F176.8
F1.0
tp28
sS'16,32,XX'
p29
(F3.365
F-0.207
F1.415
F1.184
F62.2
F1.0
tp30
sS'24,5,XX'
p31
(F-0.047
F1.882
F1.258
F1.095
F48.3
F1.0
tp32
sS'5,25,XX'
p33
(F-1.294
F-1.982
F1.229
F1.192
F139.9
F1.0
tp34
sS'16,10,XX'
p35
(F-0.868
F-1.239
F1.16
F1.04
F35.3
F1.0
tp36
sS'30,6,YY'
p37
(F-0.55
F1.375
F1.254
F1.134
F155.8
F1.0
tp38
sS'12,1,XX'
p39
(F0.006
F0.77
F1.222
F1.067
F41.1
F1.0
tp40
sS'12,11,XX'
p41
(F0.05
F-1.754
F1.22
F1.096
F50.0
F1.0
tp42
sS'4,18,YY'
p43
(F-0.706
F2.5
F1.201
F1.185
F116.7
F1.0
tp44
sS'30,11,XX'
p45
(F0.035
F-1.808
F1.008
F0.984
F139.3
F1.0
tp46
sS'2,27,YY'
p47
(F-0.0445
F-3.2265
F1.4245
F1.075
F158.65
F1.0
tp48
sS'14,15,XX'
p49
(F1.336
F0.705
F1.204
F1.1
F48.7
F1.0
tp50
sS'4,22,YY'
p51
(F-3.196
F-0.291
F1.367
F1.099
F118.6
F1.0
tp52
sS'12,14,YY'
p53
(F2.033
F0.112
F1.23
F1.11
F120.9
F1.0
tp54
sS'27,13,XX'
p55
(F1.177
F-0.663
F1.32
F0.976
F11.9
F1.0
tp56
sS'30,28,XX'
p57
(F0.675
F-2.541
F1.424
F1.133
F46.3
F1.0
tp58
sS'24,1,XX'
p59
(F-0.044
F0.593
F1.211
F1.037
F37.5
F1.0
tp60
sS'4,5,YY'
p61
(F-0.053
F1.895
F1.288
F1.087
F126.8
F1.0
tp62
sS'5,6,YY'
p63
(F-0.739
F1.192
F1.223
F1.096
F140.8
F1.0
tp64
sS'5,8,YY'
p65
(F-2.024
F-0.119
F1.268
F1.078
F131.2
F1.0
tp66
sS'30,10,XX'
p67
(F-0.563
F-1.142
F1.131
F0.927
F10.2
F1.0
tp68
sS'13,6,XX'
p69
(F-0.769
F1.191
F1.267
F1.052
F44.2
F1.0
tp70
sS'12,22,XX'
p71
(F-3.084
F0.056
F1.442
F1.17
F53.5
F1.0
tp72
sS'10,35,YY'
p73
(F1.353
F1.871
F1.281
F1.03
F121.2
F1.0
tp74
sS'13,11,YY'
p75
(F-0.182
F-2.138
F1.166
F1.142
F131.0
F1.0
tp76
sS'4,26,XX'
p77
(F-0.653
F-2.564
F1.232
F1.128
F174.0
F1.0
tp78
sS'27,25,YY'
p79
(F-1.134
F-1.77
F1.225
F0.93
F156.3
F1.0
tp80
sS'2,11,XX'
p81
(F-0.044
F-1.906
F1.22
F1.082
F36.9
F1.0
tp82
sS'13,26,XX'
p83
(F-0.699
F-2.579
F1.213
F1.139
F169.6
F1.0
tp84
sS'5,27,XX'
p85
(F-0.045
F-3.292
F1.422
F1.138
F22.7
F1.0
tp86
sS'4,35,XX'
p87
(F1.264
F1.816
F1.172
F1.108
F102.7
F1.0
tp88
sS'14,31,YY'
p89
(F2.513
F-0.68
F1.217
F1.162
F110.2
F1.0
tp90
sS'5,4,YY'
p91
(F-0.117
F-0.758
F1.158
F1.013
F146.0
F1.0
tp92
sS'30,33,XX'
p93
(F2.532
F0.645
F1.138
F1.027
F60.8
F1.0
tp94
sS'27,21,XX'
p95
(F0.0
F0.0
F0.0
F0.0
F0.0
F0.0
tp96
sS'5,34,XX'
p97
(F1.886
F1.115
F1.186
F1.123
F106.5
F1.0
tp98
sS'10,6,XX'
p99
(F-0.623
F1.276
F1.267
F1.053
F39.8
F1.0
tp100
sS'27,2,YY'
p101
(F-0.597
F0.019
F1.11
F0.927
F151.0
F1.0
tp102
sS'28,13,YY'
p103
(F1.236
F-0.766
F1.224
F1.045
F148.3
F1.0
tp104
sS'5,36,YY'
p105
(F0.573
F2.482
F1.354
F1.035
F135.3
F1.0
tp106
sS'27,4,XX'
p107
(F-0.055
F-0.595
F1.108
F0.949
F21.9
F1.0
tp108
sS'12,20,XX'
p109
(F-1.851
F1.311
F1.226
F1.029
F49.8
F1.0
tp110
sS'16,17,XX'
p111
(F0.0
F0.0
F0.0
F0.0
F0.0
F0.0
tp112
sS'10,4,XX'
p113
(F0.003
F-0.59
F1.144
F1.024
F35.2
F1.0
tp114
sS'24,14,YY'
p115
(F1.83
F-0.108
F1.222
F1.078
F131.6
F1.0
tp116
sS'13,4,YY'
p117
(F-0.174
F-0.641
F1.215
F0.995
F130.0
F1.0
tp118
sS'2,25,XX'
p119
(F-1.213
F-1.942
F1.234
F1.127
F139.9
F1.0
tp120
sS'12,16,YY'
p121
(F0.743
F1.344
F1.277
F1.075
F134.3
F1.0
tp122
sS'13,24,XX'
p123
(F-1.904
F-1.348
F1.23
F1.168
F147.7
F1.0
tp124
sS'12,33,XX'
p125
(F2.695
F0.646
F1.257
F1.125
F108.5
F1.0
tp126
sS'13,31,YY'
p127
(F2.349
F-0.816
F1.195
F1.15
F8.8
F1.0
tp128
sS'16,11,XX'
p129
(F-0.204
F-1.898
F1.25
F1.085
F17.4
F1.0
tp130
sS'24,8,XX'
p131
(F-1.932
F-0.102
F1.263
F1.122
F39.9
F1.0
tp132
sS'30,4,XX'
p133
(F0.028
F-0.557
F0.993
F0.918
F151.0
F1.0
tp134
sS'2,15,YY'
p135
(F1.254
F0.6015
F1.266
F1.058
F129.7
F1.0
tp136
sS'16,8,YY'
p137
(F-2.065
F-0.152
F1.213
F1.039
F131.6
F1.0
tp138
sS'10,24,XX'
p139
(F-1.807
F-1.21
F1.199
F1.112
F178.1
F1.0
tp140
sS'13,15,XX'
p141
(F1.19
F0.548
F1.198
F1.09
F59.2
F1.0
tp142
sS'30,13,YY'
p143
(F1.328
F-0.637
F1.227
F1.124
F170.7
F1.0
tp144
sS'12,5,XX'
p145
(F0.099
F2.029
F1.249
F1.113
F49.3
F1.0
tp146
sS'16,4,XX'
p147
(F-0.108
F-0.724
F1.013
F0.942
F42.5
F1.0
tp148
sS'10,33,YY'
p149
(F2.629
F0.6
F1.318
F1.062
F120.5
F1.0
tp150
sS'24,10,XX'
p151
(F-0.672
F-1.349
F1.203
F1.06
F55.5
F1.0
tp152
sS'16,36,XX'
p153
(F0.0
F0.0
F0.0
F0.0
F0.0
F0.0
tp154
sS'2,29,YY'
p155
(F1.151
F-1.9435
F1.132
F1.046
F101.1
F1.0
tp156
sS'14,20,XX'
p157
(F-1.881
F1.251
F1.252
F1.05
F49.4
F1.0
tp158
sS'13,17,YY'
p159
(F-0.063
F3.064
F1.291
F1.111
F129.0
F1.0
tp160
sS'27,28,YY'
p161
(F0.518
F-2.538
F1.258
F1.051
F166.3
F1.0
tp162
sS'4,1,YY'
p163
(F-0.019
F0.593
F1.211
F1.041
F147.8
F1.0
tp164
sS'24,20,XX'
p165
(F-1.95
F1.156
F1.234
F1.035
F53.6
F1.0
tp166
sS'12,26,YY'
p167
(F-0.593
F-2.265
F1.323
F0.976
F145.7
F1.0
tp168
sS'27,19,YY'
p169
(F-1.176
F1.915
F1.266
F1.119
F155.9
F1.0
tp170
sS'5,21,XX'
p171
(F-2.646
F0.48
F1.362
F1.064
F63.0
F1.0
tp172
sS'5,29,XX'
p173
(F1.117
F-1.968
F1.192
F0.974
F32.8
F1.0
tp174
sS'24,21,YY'
p175
(F-2.548
F0.486
F1.239
F1.155
F104.0
F1.0
tp176
sS'14,35,YY'
p177
(F1.367
F1.873
F1.264
F1.037
F125.8
F1.0
tp178
sS'4,22,XX'
p179
(F-3.186
F-0.101
F1.36
F1.172
F51.0
F1.0
tp180
sS'12,18,XX'
p181
(F-0.633
F2.663
F1.286
F1.067
F34.6
F1.0
tp182
sS'12,3,XX'
p183
(F0.409
F0.209
F1.265
F1.0
F32.8
F1.0
tp184
sS'27,35,YY'
p185
(F1.207
F1.788
F1.221
F0.94
F122.8
F1.0
tp186
sS'16,30,XX'
p187
(F0.0
F0.0
F0.0
F0.0
F0.0
F0.0
tp188
sS'16,32,YY'
p189
(F3.367
F-0.078
F1.451
F1.062
F120.6
F1.0
tp190
sS'4,31,XX'
p191
(F2.468
F-0.77
F1.294
F1.09
F48.8
F1.0
tp192
sS'5,25,YY'
p193
(F-1.288
F-1.953
F1.288
F1.067
F139.9
F1.0
tp194
sS'30,6,XX'
p195
(F-0.568
F1.259
F1.548
F1.369
F56.7
F1.0
tp196
sS'24,23,YY'
p197
(F-2.499
F-0.741
F1.367
F1.075
F132.6
F1.0
tp198
sS'12,1,YY'
p199
(F0.04
F0.797
F1.193
F1.057
F133.8
F1.0
tp200
sS'4,18,XX'
p201
(F-0.709
F2.543
F1.304
F1.082
F36.0
F1.0
tp202
sS'2,33,XX'
p203
(F2.5065
F0.5095
F1.167
F1.112
F71.1
F1.0
tp204
sS'2,27,XX'
p205
(F0.001
F-3.209
F1.384
F1.09
F16.7
F1.0
tp206
sS'2,13,XX'
p207
(F1.2075
F-0.6745
F1.222
F1.037
F35.65
F1.0
tp208
sS'27,9,XX'
p209
(F-1.072
F-0.711
F1.372
F1.106
F10.6
F1.0
tp210
sS'4,5,XX'
p211
(F-0.019
F1.896
F1.239
F1.106
F52.2
F1.0
tp212
sS'5,6,XX'
p213
(F-0.735
F1.174
F1.26
F1.065
F44.1
F1.0
tp214
sS'27,36,XX'
p215
(F0.576
F2.541
F1.226
F1.118
F17.9
F1.0
tp216
sS'28,6,XX'
p217
(F-0.619
F1.141
F1.248
F1.049
F38.6
F1.0
tp218
sS'5,33,XX'
p219
(F2.476
F0.458
F1.2
F1.12
F64.1
F1.0
tp220
sS'24,22,XX'
p221
(F-3.183
F-0.121
F1.335
F1.15
F55.9
F1.0
tp222
sS'28,14,YY'
p223
(F1.914
F-0.131
F1.319
F1.116
F133.6
F1.0
tp224
sS'24,33,YY'
p225
(F2.5
F0.47
F1.23
F1.025
F123.5
F1.0
tp226
sS'24,18,XX'
p227
(F-0.711
F2.509
F1.294
F1.071
F42.3
F1.0
tp228
sS'13,22,XX'
p229
(F-3.233
F-0.119
F1.391
F1.151
F53.0
F1.0
tp230
sS'27,30,XX'
p231
(F1.742
F-1.312
F1.188
F0.98
F20.0
F1.0
tp232
sS'30,31,XX'
p233
(F2.609
F-0.674
F1.38
F1.109
F59.0
F1.0
tp234
sS'16,6,YY'
p235
(F-0.859
F1.505
F1.2
F1.033
F121.7
F1.0
tp236
sS'4,12,XX'
p237
(F0.549
F-1.312
F1.151
F0.998
F34.3
F1.0
tp238
sS'2,18,YY'
p239
(F-0.663
F2.5
F1.221
F1.168
F113.9
F1.0
tp240
sS'24,12,YY'
p241
(F0.54
F-1.353
F1.191
F1.023
F152.8
F1.0
tp242
sS'16,2,YY'
p243
(F-0.995
F-0.239
F1.143
F1.011
F144.0
F1.0
tp244
sS'30,35,XX'
p245
(F1.343
F2.007
F1.276
F1.086
F124.5
F1.0
tp246
sS'24,16,YY'
p247
(F0.588
F1.194
F1.219
F1.047
F131.3
F1.0
tp248
sS'12,8,YY'
p249
(F-1.841
F0.086
F1.244
F1.068
F128.9
F1.0
tp250
sS'28,35,XX'
p251
(F1.265
F1.753
F1.15
F1.109
F90.1
F1.0
tp252
sS'5,27,YY'
p253
(F-0.143
F-3.269
F1.443
F1.098
F161.1
F1.0
tp254
sS'13,26,YY'
p255
(F-0.706
F-2.633
F1.341
F1.037
F151.8
F1.0
tp256
sS'4,35,YY'
p257
(F1.3
F1.81
F1.269
F1.015
F123.2
F1.0
tp258
sS'2,17,YY'
p259
(F0.03
F3.149
F1.347
F1.112
F142.45
F1.0
tp260
sS'27,6,YY'
p261
(F-0.599
F1.307
F1.223
F1.005
F164.9
F1.0
tp262
sS'5,4,XX'
p263
(F-0.083
F-0.726
F1.159
F1.002
F37.4
F1.0
tp264
sS'14,31,XX'
p265
(F2.556
F-0.694
F1.301
F1.041
F59.8
F1.0
tp266
sS'4,3,YY'
p267
(F0.585
F-0.029
F1.203
F1.041
F146.3
F1.0
tp268
sS'12,11,YY'
p269
(F0.093
F-1.732
F1.242
F1.061
F136.3
F1.0
tp270
sS'24,35,XX'
p271
(F1.253
F1.798
F1.144
F1.134
F172.2
F1.0
tp272
sS'5,34,YY'
p273
(F1.889
F1.148
F1.255
F1.033
F124.8
F1.0
tp274
sS'28,4,XX'
p275
(F0.042
F-0.733
F1.125
F0.98
F30.3
F1.0
tp276
sS'30,8,XX'
p277
(F-1.702
F-0.111
F1.586
F1.11
F43.8
F1.0
tp278
sS'24,31,YY'
p279
(F2.423
F-0.826
F1.218
F1.19
F125.7
F1.0
tp280
sS'30,17,XX'
p281
(F-0.061
F3.261
F1.538
F1.256
F36.3
F1.0
tp282
sS'13,35,YY'
p283
(F1.229
F1.741
F1.26
F1.029
F128.4
F1.0
tp284
sS'27,27,YY'
p285
(F-0.013
F-3.2
F1.399
F1.043
F162.3
F1.0
tp286
sS'4,24,XX'
p287
(F-1.867
F-1.323
F1.24
F1.14
F169.3
F1.0
tp288
sS'30,13,XX'
p289
(F1.309
F-0.603
F1.333
F1.053
F45.3
F1.0
tp290
sS'4,17,XX'
p291
(F-0.12
F3.139
F1.306
F1.111
F33.3
F1.0
tp292
sS'2,8,XX'
p293
(F-1.891
F-0.1
F1.263
F1.083
F45.5
F1.0
tp294
sS'13,2,XX'
p295
(F-0.758
F-0.047
F1.195
F1.04
F43.5
F1.0
tp296
sS'13,5,YY'
p297
(F-0.143
F1.839
F1.357
F1.123
F129.4
F1.0
tp298
sS'12,17,YY'
p299
(F0.141
F3.239
F1.398
F1.12
F145.0
F1.0
tp300
sS'16,16,XX'
p301
(F0.476
F1.317
F1.168
F1.011
F14.5
F1.0
tp302
sS'4,13,XX'
p303
(F1.186
F-0.686
F1.22
F1.034
F32.7
F1.0
tp304
sS'27,32,YY'
p305
(F3.027
F-0.192
F1.188
F1.055
F150.2
F1.0
tp306
sS'13,24,YY'
p307
(F-1.922
F-1.379
F1.324
F1.038
F138.1
F1.0
tp308
sS'12,31,YY'
p309
(F2.747
F-0.539
F1.238
F1.123
F43.5
F1.0
tp310
sS'14,27,YY'
p311
(F-0.022
F-3.108
F1.389
F1.065
F156.5
F1.0
tp312
sS'10,16,XX'
p313
(F0.626
F1.464
F1.162
F1.099
F62.2
F1.0
tp314
sS'24,8,YY'
p315
(F-1.941
F-0.07
F1.288
F1.067
F132.6
F1.0
tp316
sS'10,18,XX'
p317
(F-0.654
F2.618
F1.338
F1.09
F39.6
F1.0
tp318
sS'12,7,XX'
p319
(F-1.25
F0.727
F1.243
F1.024
F53.7
F1.0
tp320
sS'16,34,XX'
p321
(F0.0
F0.0
F0.0
F0.0
F0.0
F0.0
tp322
sS'16,8,XX'
p323
(F-2.094
F-0.058
F1.238
F1.037
F39.9
F1.0
tp324
sS'13,15,YY'
p325
(F1.177
F0.537
F1.271
F1.047
F127.5
F1.0
tp326
sS'12,35,YY'
p327
(F1.45
F1.926
F1.33
F1.036
F127.1
F1.0
tp328
sS'5,2,YY'
p329
(F-0.729
F-0.111
F1.184
F1.009
F135.9
F1.0
tp330
sS'24,24,XX'
p331
(F-1.863
F-1.327
F1.192
F1.167
F162.1
F1.0
tp332
sS'30,18,XX'
p333
(F-0.586
F2.655
F1.252
F0.923
F24.8
F1.0
tp334
sS'13,6,YY'
p335
(F-0.778
F1.216
F1.197
F1.109
F143.2
F1.0
tp336
sS'5,14,XX'
p337
(F1.84
F-0.102
F1.242
F1.1
F44.1
F1.0
tp338
sS'30,21,XX'
p339
(F-2.559
F0.584
F1.622
F1.078
F61.6
F1.0
tp340
sS'28,1,YY'
p341
(F0.016
F0.54
F1.228
F1.1
F146.4
F1.0
tp342
sS'10,35,XX'
p343
(F1.368
F1.942
F1.239
F1.11
F90.5
F1.0
tp344
sS'30,25,XX'
p345
(F-1.162
F-1.828
F1.441
F1.115
F106.7
F1.0
tp346
sS'4,26,YY'
p347
(F-0.619
F-2.552
F1.35
F1.041
F153.9
F1.0
tp348
sS'5,23,XX'
p349
(F-2.55
F-0.77
F1.185
F1.168
F146.5
F1.0
tp350
sS'4,1,XX'
p351
(F-0.054
F0.606
F1.217
F1.051
F37.2
F1.0
tp352
sS'28,28,XX'
p353
(F0.599
F-2.648
F1.229
F0.982
F23.1
F1.0
tp354
sS'24,20,YY'
p355
(F-1.98
F1.168
F1.19
F1.164
F112.9
F1.0
tp356
sS'5,18,XX'
p357
(F-0.766
F2.494
F1.307
F1.111
F38.4
F1.0
tp358
sS'12,26,XX'
p359
(F-0.61
F-2.319
F1.182
F1.068
F178.2
F1.0
tp360
sS'14,29,XX'
p361
(F1.201
F-1.867
F1.196
F0.965
F27.8
F1.0
tp362
sS'28,33,XX'
p363
(F2.513
F0.45
F1.142
F1.104
F94.2
F1.0
tp364
sS'27,10,XX'
p365
(F-0.583
F-1.254
F1.141
F1.045
F177.6
F1.0
tp366
sS'5,21,YY'
p367
(F-2.639
F0.494
F1.262
F1.187
F104.5
F1.0
tp368
sS'27,19,XX'
p369
(F-1.166
F1.869
F1.274
F1.014
F18.9
F1.0
tp370
sS'16,30,YY'
p371
(F0.0
F0.0
F0.0
F0.0
F0.0
F0.0
tp372
sS'5,29,YY'
p373
(F1.112
F-1.966
F1.128
F1.064
F1.1
F1.0
tp374
sS'4,33,XX'
p375
(F2.5
F0.385
F1.182
F1.084
F78.1
F1.0
tp376
sS'14,18,XX'
p377
(F-0.651
F2.634
F1.292
F1.08
F34.8
F1.0
tp378
sS'4,7,YY'
p379
(F-1.379
F0.595
F1.203
F1.075
F121.6
F1.0
tp380
sS'14,35,XX'
p381
(F1.365
F1.928
F1.225
F1.104
F114.5
F1.0
tp382
sS'27,34,XX'
p383
(F1.848
F1.212
F1.14
F1.042
F101.0
F1.0
tp384
sS'12,3,YY'
p385
(F0.826
F0.168
F1.15
F1.099
F10.5
F1.0
tp386
sS'12,18,YY'
p387
(F-0.599
F2.594
F1.221
F1.146
F137.1
F1.0
tp388
sS'28,10,YY'
p389
(F-0.62
F-1.38
F1.265
F1.024
F130.2
F1.0
tp390
sS'14,16,XX'
p391
(F0.712
F1.343
F1.223
F1.101
F45.8
F1.0
tp392
sS'2,2,XX'
p393
(F-0.626
F-0.0125
F1.186
F1.0265
F42.75
F1.0
tp394
sS'13,8,XX'
p395
(F-1.966
F-0.1
F1.215
F1.059
F50.2
F1.0
tp396
sS'12,29,YY'
p397
(F1.243
F-1.856
F1.13
F1.026
F25.9
F1.0
tp398
sS'12,13,YY'
p399
(F1.231
F-0.533
F1.221
F0.993
F157.6
F1.0
tp400
sS'13,20,XX'
p401
(F-1.991
F1.149
F1.263
F1.045
F55.3
F1.0
tp402
sS'24,6,XX'
p403
(F-0.681
F1.206
F1.266
F1.054
F39.5
F1.0
tp404
sS'16,10,YY'
p405
(F-0.851
F-1.328
F1.247
F1.0
F143.0
F1.0
tp406
sS'5,33,YY'
p407
(F2.512
F0.469
F1.272
F1.041
F123.7
F1.0
tp408
sS'24,14,XX'
p409
(F1.833
F-0.054
F1.249
F1.09
F52.7
F1.0
tp410
sS'28,18,YY'
p411
(F-0.663
F2.428
F1.219
F1.178
F121.3
F1.0
tp412
sS'27,2,XX'
p413
(F-0.594
F0.002
F1.047
F0.928
F27.6
F1.0
tp414
sS'27,24,YY'
p415
(F-1.55
F-1.245
F1.131
F0.927
F18.9
F1.0
tp416
sS'24,22,YY'
p417
(F-3.176
F-0.213
F1.356
F1.107
F123.4
F1.0
tp418
sS'28,14,XX'
p419
(F1.894
F-0.12
F1.254
F1.116
F40.3
F1.0
tp420
sS'12,15,YY'
p421
(F1.376
F0.723
F1.265
F1.078
F135.8
F1.0
tp422
sS'13,22,YY'
p423
(F-3.242
F-0.239
F1.392
F1.135
F119.5
F1.0
tp424
sS'14,33,YY'
p425
(F2.756
F0.52
F1.444
F0.99
F121.8
F1.0
tp426
sS'27,30,YY'
p427
(F1.769
F-1.355
F1.263
F1.01
F178.1
F1.0
tp428
sS'4,11,XX'
p429
(F-0.044
F-1.948
F1.214
F1.082
F34.7
F1.0
tp430
sS'24,28,XX'
p431
(F0.561
F-2.596
F1.289
F0.993
F28.5
F1.0
tp432
sS'10,29,YY'
p433
(F1.163
F-1.872
F1.122
F1.074
F174.3
F1.0
tp434
sS'4,20,XX'
p435
(F-1.942
F1.162
F1.241
F1.014
F49.5
F1.0
tp436
sS'2,18,XX'
p437
(F-0.6675
F2.5615
F1.293
F1.0755
F35.4
F1.0
tp438
sS'16,2,XX'
p439
(F0.0
F0.0
F0.0
F0.0
F0.0
F0.0
tp440
sS'16,18,YY'
p441
(F-0.876
F2.19
F1.233
F1.154
F8.5
F1.0
tp442
sS'12,8,XX'
p443
(F-1.837
F0.073
F1.213
F1.078
F48.1
F1.0
tp444
sS'24,16,XX'
p445
(F0.605
F1.217
F1.231
F1.098
F50.9
F1.0
tp446
sS'4,23,YY'
p447
(F-2.51
F-0.697
F1.309
F1.084
F139.8
F1.0
tp448
sS'12,5,YY'
p449
(F0.061
F2.039
F1.274
F1.095
F132.6
F1.0
tp450
sS'28,24,XX'
p451
(F-1.834
F-1.369
F1.219
F1.171
F134.5
F1.0
tp452
sS'10,33,XX'
p453
(F2.591
F0.611
F1.213
F1.152
F83.4
F1.0
tp454
sS'16,36,YY'
p455
(F0.549
F2.265
F1.353
F1.027
F146.7
F1.0
tp456
sS'2,29,XX'
p457
(F1.154
F-1.946
F1.196
F0.97
F30.7
F1.0
tp458
sS'27,28,XX'
p459
(F0.552
F-2.582
F1.25
F0.946
F19.3
F1.0
tp460
sS'5,9,XX'
p461
(F-1.364
F-0.731
F1.253
F1.098
F53.9
F1.0
tp462
sS'13,12,YY'
p463
(F0.667
F-1.346
F1.137
F0.976
F162.6
F1.0
tp464
sS'27,22,YY'
p465
(F-3.828
F-0.315
F1.22
F1.165
F146.9
F1.0
tp466
sS'14,12,XX'
p467
(F0.624
F-1.215
F1.14
F0.986
F49.6
F1.0
tp468
sS'10,14,XX'
p469
(F1.944
F0.015
F1.241
F1.083
F40.1
F1.0
tp470
sS'5,31,YY'
p471
(F2.404
F-0.793
F1.205
F1.196
F101.9
F1.0
tp472
sS'30,27,XX'
p473
(F0.15
F-3.148
F1.57
F1.094
F8.1
F1.0
tp474
sS'4,24,YY'
p475
(F-1.842
F-1.355
F1.29
F1.03
F142.5
F1.0
tp476
sS'2,13,YY'
p477
(F1.2195
F-0.6835
F1.213
F1.054
F152.15
F1.0
tp478
sS'4,17,YY'
p479
(F0.001
F3.126
F1.35
F1.108
F136.2
F1.0
tp480
sS'2,8,YY'
p481
(F-1.907
F-0.057
F1.244
F1.062
F131.2
F1.0
tp482
sS'13,2,YY'
p483
(F-0.751
F-0.115
F1.182
F1.028
F136.8
F1.0
tp484
sS'30,36,XX'
p485
(F0.683
F2.537
F1.346
F1.107
F38.7
F1.0
tp486
sS'4,13,YY'
p487
(F1.208
F-0.707
F1.207
F1.056
F148.5
F1.0
tp488
sS'5,16,XX'
p489
(F0.587
F1.197
F1.237
F1.121
F61.9
F1.0
tp490
sS'4,21,XX'
p491
(F-2.591
F0.513
F1.349
F1.062
F61.8
F1.0
tp492
sS'28,26,XX'
p493
(F-0.616
F-2.597
F1.227
F1.152
F170.9
F1.0
tp494
sS'28,2,YY'
p495
(F-0.624
F-0.096
F1.189
F0.999
F131.5
F1.0
tp496
sS'2,35,XX'
p497
(F1.2645
F1.823
F1.1835
F1.1095
F103.1
F1.0
tp498
sS'27,23,YY'
p499
(F0.0
F0.0
F0.0
F0.0
F0.0
F0.0
tp500
sS'24,12,XX'
p501
(F0.537
F-1.302
F1.225
F1.006
F29.2
F1.0
tp502
sS'2,33,YY'
p503
(F2.54
F0.494
F1.295
F1.0215
F121.85
F1.0
tp504
sS'16,6,XX'
p505
(F-0.9
F1.561
F1.195
F1.0
F33.4
F1.0
tp506
sS'27,9,YY'
p507
(F-1.059
F-0.606
F1.342
F1.068
F157.4
F1.0
tp508
sS'2,11,YY'
p509
(F0.02
F-1.916
F1.259
F1.061
F140.3
F1.0
tp510
sS'24,26,XX'
p511
(F-0.668
F-2.553
F1.223
F1.135
F175.4
F1.0
tp512
sS'28,6,YY'
p513
(F-0.643
F1.204
F1.221
F1.074
F144.7
F1.0
tp514
sS'28,12,YY'
p515
(F0.606
F-1.396
F1.145
F1.016
F148.3
F1.0
tp516
sS'2,17,XX'
p517
(F-0.085
F3.1755
F1.333
F1.1295
F36.9
F1.0
tp518
sS'2,6,XX'
p519
(F-0.624
F1.243
F1.262
F1.052
F38.6
F1.0
tp520
sS'5,2,XX'
p521
(F-0.739
F-0.076
F1.191
F1.018
F43.3
F1.0
tp522
sS'16,21,XX'
p523
(F-2.732
F0.545
F1.384
F0.971
F57.8
F1.0
tp524
sS'13,30,YY'
p525
(F1.721
F-1.414
F1.215
F1.138
F0.9
F1.0
tp526
sS'24,4,XX'
p527
(F-0.021
F-0.699
F1.112
F1.004
F42.0
F1.0
tp528
sS'24,24,YY'
p529
(F-1.863
F-1.37
F1.282
F1.064
F137.2
F1.0
tp530
sS'13,32,YY'
p531
(F3.069
F-0.17
F1.246
F1.042
F123.7
F1.0
tp532
sS'30,18,YY'
p533
(F-0.577
F2.643
F1.172
F0.976
F179.6
F1.0
tp534
sS'5,14,YY'
p535
(F1.848
F-0.123
F1.256
F1.11
F128.2
F1.0
tp536
sS'13,10,YY'
p537
(F-0.78
F-1.327
F1.271
F1.032
F143.7
F1.0
tp538
sS'30,5,XX'
p539
(F0.143
F1.951
F1.309
F1.106
F49.0
F1.0
tp540
sS'30,21,YY'
p541
(F-2.452
F0.56
F1.408
F1.241
F57.1
F1.0
tp542
sS'28,31,XX'
p543
(F2.46
F-0.819
F1.326
F1.062
F51.4
F1.0
tp544
sS'30,25,YY'
p545
(F-1.082
F-1.815
F1.182
F0.978
F132.9
F1.0
tp546
sS'16,25,XX'
p547
(F-1.389
F-1.942
F1.237
F1.087
F165.4
F1.0
tp548
sS'5,23,YY'
p549
(F-2.59
F-0.767
F1.35
F1.041
F132.8
F1.0
tp550
sS'13,28,XX'
p551
(F0.498
F-2.611
F1.225
F0.999
F27.8
F1.0
tp552
sS'13,18,YY'
p553
(F-0.796
F2.453
F1.225
F1.194
F113.9
F1.0
tp554
sS'28,35,YY'
p555
(F1.298
F1.763
F1.239
F1.007
F124.0
F1.0
tp556
sS'27,6,XX'
p557
(F-0.586
F1.243
F1.285
F1.022
F27.9
F1.0
tp558
sS'4,3,XX'
p559
(F0.576
F-0.038
F1.223
F1.039
F32.7
F1.0
tp560
sS'14,3,XX'
p561
(F0.674
F0.068
F1.243
F1.068
F31.9
F1.0
tp562
sS'27,14,XX'
p563
(F1.799
F0.003
F1.17
F1.033
F28.6
F1.0
tp564
sS'14,14,XX'
p565
(F1.953
F0.056
F1.245
F1.081
F39.7
F1.0
tp566
sS'24,35,YY'
p567
(F1.261
F1.772
F1.275
F1.055
F137.7
F1.0
tp568
sS'28,4,YY'
p569
(F0.007
F-0.724
F1.159
F0.954
F142.1
F1.0
tp570
sS'30,30,YY'
p571
(F1.842
F-1.29
F1.22
F0.998
F173.4
F1.0
tp572
sS'10,27,XX'
p573
(F0.001
F-3.177
F1.384
F1.097
F20.8
F1.0
tp574
sS'5,30,XX'
p575
(F1.763
F-1.386
F1.222
F1.049
F33.2
F1.0
tp576
sS'2,2,YY'
p577
(F-0.682
F-0.075
F1.182
F1.008
F136.8
F1.0
tp578
sS'13,8,YY'
p579
(F-1.979
F-0.093
F1.224
F1.046
F126.9
F1.0
tp580
sS'14,16,YY'
p581
(F0.712
F1.341
F1.259
F1.075
F128.0
F1.0
tp582
sS'2,31,XX'
p583
(F2.4565
F-0.7655
F1.3175
F1.064
F52.0
F1.0
tp584
sS'10,12,XX'
p585
(F0.584
F-1.216
F1.118
F1.008
F31.4
F1.0
tp586
sS'12,13,XX'
p587
(F1.346
F-0.652
F1.079
F1.021
F114.9
F1.0
tp588
sS'30,15,XX'
p589
(F1.305
F0.747
F1.172
F1.04
F27.0
F1.0
tp590
sS'24,6,YY'
p591
(F-0.693
F1.234
F1.195
F1.099
F149.2
F1.0
tp592
sS'5,1,XX'
p593
(F-0.077
F0.565
F1.234
F1.051
F39.1
F1.0
tp594
sS'13,20,YY'
p595
(F-2.026
F1.168
F1.225
F1.147
F63.2
F1.0
tp596
sS'16,27,XX'
p597
(F-0.124
F-3.182
F1.379
F1.093
F14.6
F1.0
tp598
sS'10,23,XX'
p599
(F-2.424
F-0.647
F1.224
F1.15
F22.8
F1.0
tp600
sS'16,22,XX'
p601
(F-3.329
F-0.012
F1.434
F1.218
F57.4
F1.0
tp602
sS'4,9,YY'
p603
(F-1.282
F-0.697
F1.271
F1.05
F132.4
F1.0
tp604
sS'12,31,XX'
p605
(F2.641
F-0.631
F1.34
F1.048
F51.6
F1.0
tp606
sS'13,19,YY'
p607
(F-1.407
F1.827
F1.227
F1.18
F34.4
F1.0
tp608
sS'10,16,YY'
p609
(F0.659
F1.309
F1.247
F1.044
F130.9
F1.0
tp610
sS'5,10,XX'
p611
(F-0.716
F-1.349
F1.232
F1.095
F46.6
F1.0
tp612
sS'28,20,XX'
p613
(F-1.933
F1.107
F1.238
F1.027
F49.4
F1.0
tp614
sS'14,24,YY'
p615
(F-1.788
F-1.235
F1.237
F1.017
F143.7
F1.0
tp616
sS'12,35,XX'
p617
(F1.459
F1.973
F1.293
F1.138
F125.1
F1.0
tp618
sS'12,7,YY'
p619
(F-1.246
F0.697
F1.197
F1.076
F117.8
F1.0
tp620
sS'10,18,YY'
p621
(F-0.647
F2.552
F1.223
F1.198
F96.0
F1.0
tp622
sS'16,34,YY'
p623
(F1.993
F1.226
F1.421
F0.996
F118.7
F1.0
tp624
sS'28,8,XX'
p625
(F-1.891
F-0.155
F1.281
F1.092
F46.4
F1.0
tp626
sS'13,1,YY'
p627
(F-0.089
F0.569
F1.228
F1.074
F151.8
F1.0
tp628
sS'24,2,XX'
p629
(F-0.692
F-0.057
F1.201
F1.025
F32.7
F1.0
tp630
sS'28,24,YY'
p631
(F-1.822
F-1.394
F1.363
F1.03
F134.8
F1.0
tp632
sS'27,34,YY'
p633
(F1.843
F1.227
F1.278
F1.019
F122.6
F1.0
tp634
sS'24,32,YY'
p635
(F3.08
F-0.219
F1.249
F1.108
F146.1
F1.0
tp636
sS'24,30,YY'
p637
(F1.775
F-1.428
F1.194
F1.061
F169.5
F1.0
tp638
sS'27,20,YY'
p639
(F-1.67
F1.25
F1.196
F0.924
F175.0
F1.0
tp640
sS'12,27,XX'
p641
(F-0.126
F-3.111
F1.439
F1.034
F14.3
F1.0
tp642
sS'5,9,YY'
p643
(F-1.345
F-0.748
F1.287
F1.059
F130.0
F1.0
tp644
sS'16,33,YY'
p645
(F0.0
F0.0
F0.0
F0.0
F0.0
F0.0
tp646
sS'14,7,XX'
p647
(F-1.232
F0.721
F1.221
F1.028
F38.7
F1.0
tp648
sS'12,21,XX'
p649
(F-2.464
F0.656
F1.333
F1.089
F61.1
F1.0
tp650
sS'10,21,XX'
p651
(F-2.515
F0.603
F1.308
F1.065
F61.4
F1.0
tp652
sS'13,12,XX'
p653
(F0.501
F-1.325
F1.131
F0.986
F36.5
F1.0
tp654
sS'14,10,XX'
p655
(F-0.586
F-1.197
F1.194
F1.09
F34.3
F1.0
tp656
sS'27,16,XX'
p657
(F0.591
F1.277
F1.247
F1.124
F50.5
F1.0
tp658
sS'5,18,YY'
p659
(F-0.77
F2.436
F1.228
F1.191
F103.8
F1.0
tp660
sS'13,28,YY'
p661
(F0.497
F-2.594
F1.166
F1.066
F155.0
F1.0
tp662
sS'14,29,YY'
p663
(F1.204
F-1.878
F1.133
F1.06
F4.5
F1.0
tp664
sS'28,33,YY'
p665
(F2.568
F0.468
F1.319
F1.014
F121.9
F1.0
tp666
sS'27,10,YY'
p667
(F-0.544
F-1.2
F1.205
F0.928
F146.7
F1.0
tp668
sS'4,33,YY'
p669
(F2.507
F0.44
F1.246
F1.04
F121.7
F1.0
tp670
sS'5,35,YY'
p671
(F1.249
F1.793
F1.27
F1.012
F130.2
F1.0
tp672
sS'4,7,XX'
p673
(F-1.326
F0.578
F1.208
F1.021
F47.7
F1.0
tp674
sS'14,18,YY'
p675
(F-0.642
F2.56
F1.216
F1.146
F144.3
F1.0
tp676
sS'4,15,XX'
p677
(F1.285
F0.611
F1.212
F1.118
F55.7
F1.0
tp678
sS'10,3,XX'
p679
(F0.589
F-0.044
F1.198
F1.02
F40.1
F1.0
tp680
sS'28,10,XX'
p681
(F-0.605
F-1.391
F1.21
F1.041
F54.3
F1.0
tp682
sS'30,14,XX'
p683
(F1.931
F-0.027
F1.249
F1.158
F27.2
F1.0
tp684
sS'27,7,YY'
p685
(F-1.13
F0.667
F1.152
F1.012
F161.9
F1.0
tp686
sS'14,1,XX'
p687
(F0.023
F0.724
F1.267
F1.081
F43.4
F1.0
tp688
sS'28,26,YY'
p689
(F-0.594
F-2.596
F1.33
F1.014
F148.7
F1.0
tp690
sS'10,9,XX'
p691
(F-1.245
F-0.612
F1.244
F1.107
F52.0
F1.0
tp692
sS'2,35,YY'
p693
(F1.298
F1.793
F1.27
F1.015
F125.8
F1.0
tp694
sS'12,29,XX'
p695
(F1.191
F-1.86
F1.172
F0.951
F28.4
F1.0
tp696
sS'2,4,XX'
p697
(F-0.032
F-0.687
F1.132
F1.002
F40.1
F1.0
tp698
sS'4,34,YY'
p699
(F1.913
F1.193
F1.252
F1.007
F127.2
F1.0
tp700
sS'4,25,YY'
p701
(F-1.207
F-1.911
F1.282
F1.034
F147.7
F1.0
tp702
sS'4,28,XX'
p703
(F0.556
F-2.57
F1.234
F0.997
F24.8
F1.0
tp704
sS'24,26,YY'
p705
(F-0.643
F-2.581
F1.38
F1.036
F153.3
F1.0
tp706
sS'28,12,XX'
p707
(F0.594
F-1.357
F1.145
F0.945
F28.3
F1.0
tp708
sS'5,16,YY'
p709
(F0.56
F1.185
F1.271
F1.064
F132.6
F1.0
tp710
sS'16,14,XX'
p711
(F0.0
F0.0
F0.0
F0.0
F0.0
F0.0
tp712
sS'27,24,XX'
p713
(F-1.559
F-1.141
F1.233
F0.863
F39.9
F1.0
tp714
sS'10,29,XX'
p715
(F1.242
F-1.773
F1.199
F0.969
F39.5
F1.0
tp716
sS'12,15,XX'
p717
(F1.435
F0.909
F1.254
F1.025
F51.1
F1.0
tp718
sS'5,26,YY'
p719
(F-0.675
F-2.587
F1.341
F1.079
F150.8
F1.0
tp720
sS'4,11,YY'
p721
(F-0.03
F-1.942
F1.278
F1.064
F140.3
F1.0
tp722
sS'14,33,XX'
p723
(F2.61
F0.602
F1.209
F1.123
F102.1
F1.0
tp724
sS'5,24,YY'
p725
(F-1.925
F-1.395
F1.338
F1.042
F138.7
F1.0
tp726
sS'24,28,YY'
p727
(F0.539
F-2.563
F1.155
F1.089
F174.6
F1.0
tp728
sS'13,16,YY'
p729
(F0.541
F1.145
F1.333
F1.085
F128.1
F1.0
tp730
sS'30,23,XX'
p731
(F-2.44
F-0.704
F1.274
F1.133
F18.5
F1.0
tp732
sS'4,20,YY'
p733
(F-1.903
F1.039
F1.142
F1.078
F39.7
F1.0
tp734
sS'13,14,YY'
p735
(F1.812
F-0.14
F1.219
F1.095
F132.0
F1.0
tp736
sS'4,23,XX'
p737
(F-2.479
F-0.74
F1.208
F1.18
F11.0
F1.0
tp738
sS'14,9,XX'
p739
(F-1.223
F-0.578
F1.229
F1.098
F56.5
F1.0
tp740
sS'12,25,YY'
p741
(F-1.141
F-1.789
F1.236
F1.08
F143.6
F1.0
tp742
sS'13,18,XX'
p743
(F-0.791
F2.523
F1.286
F1.11
F34.7
F1.0
tp744
sS'12,16,XX'
p745
(F0.729
F1.376
F1.219
F1.109
F41.5
F1.0
tp746
sS'4,27,YY'
p747
(F-0.101
F-3.219
F1.436
F1.07
F159.2
F1.0
tp748
sS'27,12,XX'
p749
(F0.554
F-1.288
F1.107
F0.913
F44.8
F1.0
tp750
sS'12,19,YY'
p751
(F-1.231
F1.976
F1.212
F1.157
F18.1
F1.0
tp752
sS'14,3,YY'
p753
(F0.672
F0.071
F1.226
F1.047
F142.9
F1.0
tp754
sS'27,14,YY'
p755
(F1.784
F-0.058
F1.242
F1.078
F143.7
F1.0
tp756
sS'14,14,YY'
p757
(F1.901
F-0.044
F1.183
F1.098
F115.8
F1.0
tp758
sS'10,10,XX'
p759
(F-0.598
F-1.223
F1.251
F1.086
F45.0
F1.0
tp760
sS'14,12,YY'
p761
(F0.621
F-1.261
F1.127
F0.986
F134.0
F1.0
tp762
sS'30,1,XX'
p763
(F0.084
F0.646
F1.245
F1.052
F7.1
F1.0
tp764
sS'5,31,XX'
p765
(F2.421
F-0.803
F1.333
F1.085
F52.4
F1.0
tp766
sS'13,27,YY'
p767
(F-0.15
F-3.242
F1.442
F1.08
F161.7
F1.0
tp768
sS'30,27,YY'
p769
(F0.098
F-3.13
F1.413
F1.241
F170.6
F1.0
tp770
sS'13,25,YY'
p771
(F-1.303
F-1.974
F1.313
F1.071
F147.0
F1.0
tp772
sS'16,29,XX'
p773
(F0.992
F-1.896
F1.233
F0.966
F38.5
F1.0
tp774
sS'30,36,YY'
p775
(F0.728
F2.588
F1.551
F1.107
F131.2
F1.0
tp776
sS'10,14,YY'
p777
(F1.93
F0.001
F1.264
F1.103
F128.9
F1.0
tp778
sS'28,22,XX'
p779
(F-3.178
F-0.175
F1.369
F1.208
F54.6
F1.0
tp780
sS'5,12,XX'
p781
(F0.523
F-1.344
F1.155
F0.998
F37.3
F1.0
tp782
sS'14,22,YY'
p783
(F-3.132
F-0.108
F1.363
F1.115
F125.9
F1.0
tp784
sS'13,36,YY'
p785
(F0.566
F2.477
F1.347
F1.048
F136.7
F1.0
tp786
sS'4,9,XX'
p787
(F-1.305
F-0.689
F1.231
F1.097
F50.9
F1.0
tp788
sS'13,5,XX'
p789
(F-0.079
F1.873
F1.349
F1.175
F47.7
F1.0
tp790
sS'10,1,XX'
p791
(F-0.086
F0.667
F1.227
F1.009
F30.6
F1.0
tp792
sS'12,17,XX'
p793
(F0.029
F3.273
F1.38
F1.187
F41.6
F1.0
tp794
sS'28,20,YY'
p795
(F-1.921
F1.126
F1.118
F1.101
F106.9
F1.0
tp796
sS'30,16,XX'
p797
(F0.677
F1.341
F1.288
F1.111
F56.1
F1.0
tp798
sS'10,7,XX'
p799
(F-1.289
F0.676
F1.25
F1.029
F53.9
F1.0
tp800
sS'12,23,XX'
p801
(F-2.377
F-0.574
F1.208
F1.141
F26.6
F1.0
tp802
sS'28,16,YY'
p803
(F0.643
F1.18
F1.317
F1.128
F136.9
F1.0
tp804
sS'5,20,YY'
p805
(F-2.045
F1.164
F1.202
F1.165
F54.3
F1.0
tp806
sS'28,8,YY'
p807
(F-1.907
F-0.123
F1.295
F1.067
F126.2
F1.0
tp808
sS'30,32,XX'
p809
(F3.22
F-0.22
F1.601
F1.035
F44.5
F1.0
tp810
sS'13,1,XX'
p811
(F-0.114
F0.596
F1.254
F1.046
F37.5
F1.0
tp812
sS'24,2,YY'
p813
(F-0.684
F-0.084
F1.179
F1.008
F138.3
F1.0
tp814
sS'5,5,XX'
p815
(F-0.076
F1.845
F1.254
F1.117
F51.0
F1.0
tp816
sS'12,2,YY'
p817
(F-0.682
F0.092
F1.188
F0.997
F142.1
F1.0
tp818
sS'13,10,XX'
p819
(F-0.732
F-1.334
F1.235
F1.101
F36.9
F1.0
tp820
sS'16,21,YY'
p821
(F-2.803
F0.34
F1.243
F1.074
F54.4
F1.0
tp822
sS'30,3,XX'
p823
(F0.634
F0.099
F1.099
F0.985
F37.0
F1.0
tp824
sS'2,14,YY'
p825
(F1.8915
F-0.066
F1.249
F1.1005
F130.95
F1.0
tp826
sS'16,31,YY'
p827
(F0.0
F0.0
F0.0
F0.0
F0.0
F0.0
tp828
sS'24,4,YY'
p829
(F-0.043
F-0.702
F1.153
F0.954
F144.0
F1.0
tp830
sS'5,3,XX'
p831
(F0.554
F-0.075
F1.216
F1.054
F36.0
F1.0
tp832
sS'13,32,XX'
p833
(F3.061
F-0.26
F1.268
F1.084
F46.4
F1.0
tp834
sS'12,28,YY'
p835
(F0.708
F-2.283
F1.183
F1.109
F162.8
F1.0
tp836
sS'16,23,XX'
p837
(F-2.555
F-0.679
F1.186
F1.097
F176.8
F1.0
tp838
sS'24,9,YY'
p839
(F-1.295
F-0.716
F1.262
F1.034
F133.9
F1.0
tp840
sS'28,31,YY'
p841
(F2.427
F-0.805
F1.189
F1.151
F143.0
F1.0
tp842
sS'10,30,XX'
p843
(F1.759
F-1.197
F1.166
F1.079
F22.0
F1.0
tp844
sS'16,25,YY'
p845
(F-1.42
F-1.846
F1.301
F1.0
F137.6
F1.0
tp846
sS'24,36,YY'
p847
(F0.592
F2.461
F1.288
F1.024
F137.7
F1.0
tp848
sS'27,16,YY'
p849
(F0.592
F1.249
F1.222
F1.053
F148.3
F1.0
tp850
sS'14,22,XX'
p851
(F-3.131
F-0.011
F1.362
F1.141
F52.8
F1.0
tp852
sS'14,23,XX'
p853
(F-2.421
F-0.635
F1.206
F1.135
F21.9
F1.0
tp854
sS'12,4,YY'
p855
(F-0.049
F-0.682
F1.126
F0.996
F124.2
F1.0
tp856
sS'12,27,YY'
p857
(F0.089
F-3.234
F1.457
F1.058
F156.7
F1.0
tp858
sS'5,35,XX'
p859
(F1.225
F1.8
F1.186
F1.128
F101.6
F1.0
tp860
sS'4,15,YY'
p861
(F1.244
F0.584
F1.269
F1.058
F127.3
F1.0
tp862
sS'2,24,XX'
p863
(F-1.834
F-1.279
F1.219
F1.123
F158.9
F1.0
tp864
sS'10,3,YY'
p865
(F0.629
F0.046
F1.213
F1.03
F151.4
F1.0
tp866
sS'2,15,XX'
p867
(F1.2885
F0.6245
F1.212
F1.1015
F49.15
F1.0
tp868
sS'14,19,YY'
p869
(F-1.263
F1.952
F1.197
F1.164
F50.4
F1.0
tp870
sS'13,23,YY'
p871
(F-2.517
F-0.784
F1.372
F0.964
F143.4
F1.0
tp872
sS'30,14,YY'
p873
(F1.952
F0.026
F1.282
F1.112
F168.1
F1.0
tp874
sS'4,36,YY'
p875
(F0.626
F2.525
F1.335
F1.049
F136.9
F1.0
tp876
sS'10,27,YY'
p877
(F-0.043
F-3.165
F1.445
F1.099
F157.4
F1.0
tp878
sS'14,5,XX'
p879
(F0.066
F2.008
F1.252
F1.123
F51.7
F1.0
tp880
sS'2,31,YY'
p881
(F2.4305
F-0.773
F1.2175
F1.1565
F110.6
F1.0
tp882
sS'10,12,YY'
p883
(F0.585
F-1.296
F1.16
F0.982
F144.6
F1.0
tp884
sS'10,25,XX'
p885
(F-1.183
F-1.879
F1.258
F1.176
F13.7
F1.0
tp886
sS'13,7,YY'
p887
(F-1.408
F0.543
F1.227
F1.074
F143.5
F1.0
tp888
sS'5,1,YY'
p889
(F-0.08
F0.556
F1.238
F1.048
F146.5
F1.0
tp890
sS'16,27,YY'
p891
(F0.0
F0.0
F0.0
F0.0
F0.0
F0.0
tp892
sS'5,28,YY'
p893
(F0.495
F-2.571
F1.173
F1.073
F157.6
F1.0
tp894
sS'27,23,XX'
p895
(F0.0
F0.0
F0.0
F0.0
F0.0
F0.0
tp896
sS'14,25,XX'
p897
(F-1.168
F-1.831
F1.193
F1.171
F21.5
F1.0
tp898
sS'14,27,XX'
p899
(F0.076
F-3.115
F1.378
F1.071
F15.8
F1.0
tp900
sS'16,14,YY'
p901
(F0.0
F0.0
F0.0
F0.0
F0.0
F0.0
tp902
sS'24,34,YY'
p903
(F1.899
F1.15
F1.276
F1.025
F122.8
F1.0
tp904
sS'27,26,YY'
p905
(F-0.506
F-2.572
F1.242
F0.932
F155.2
F1.0
tp906
sS'28,7,YY'
p907
(F-1.295
F0.531
F1.163
F1.018
F135.0
F1.0
tp908
sS'28,36,YY'
p909
(F0.63
F2.475
F1.304
F1.014
F135.2
F1.0
tp910
sS'5,26,XX'
p911
(F-0.698
F-2.588
F1.225
F1.16
F176.9
F1.0
tp912
sS'28,34,YY'
p913
(F1.934
F1.165
F1.286
F1.004
F126.9
F1.0
tp914
sS'4,30,YY'
p915
(F1.785
F-1.369
F1.201
F1.091
F170.3
F1.0
tp916
sS'4,28,YY'
p917
(F0.54
F-2.513
F1.169
F1.055
F157.4
F1.0
tp918
sS'5,24,XX'
p919
(F-1.953
F-1.344
F1.234
F1.167
F158.9
F1.0
tp920
sS'13,16,XX'
p921
(F0.556
F1.189
F1.236
F1.17
F43.2
F1.0
tp922
sS'30,23,YY'
p923
(F-2.599
F-0.72
F1.708
F1.144
F120.6
F1.0
tp924
sS'13,14,XX'
p925
(F1.778
F-0.103
F1.254
F1.07
F44.5
F1.0
tp926
sS'27,18,XX'
p927
(F-0.65
F2.58
F1.253
F0.991
F31.3
F1.0
tp928
sS'4,21,YY'
p929
(F-2.35
F0.401
F1.294
F1.136
F134.2
F1.0
tp930
sS'14,9,YY'
p931
(F-1.197
F-0.567
F1.297
F1.032
F130.3
F1.0
tp932
sS'27,8,YY'
p933
(F-1.571
F0.056
F1.108
F1.008
F175.8
F1.0
tp934
sS'13,34,XX'
p935
(F1.875
F1.129
F1.164
F1.142
F19.5
F1.0
tp936
sS'14,4,YY'
p937
(F0.006
F-0.569
F1.182
F0.975
F136.9
F1.0
tp938
sS'27,5,XX'
p939
(F-0.004
F1.903
F1.234
F1.043
F30.8
F1.0
tp940
sS'24,32,XX'
p941
(F2.967
F-0.257
F1.342
F1.081
F23.7
F1.0
tp942
sS'24,30,XX'
p943
(F1.744
F-1.394
F1.237
F1.025
F27.8
F1.0
tp944
sS'27,20,XX'
p945
(F-1.681
F1.205
F1.11
F0.944
F15.0
F1.0
tp946
sS'16,19,YY'
p947
(F-1.504
F1.897
F1.248
F1.102
F46.9
F1.0
tp948
sS'14,10,YY'
p949
(F-0.586
F-1.205
F1.264
F1.018
F138.5
F1.0
tp950
sS'28,3,YY'
p951
(F0.618
F-0.09
F1.207
F1.038
F149.3
F1.0
tp952
sS'16,33,XX'
p953
(F0.0
F0.0
F0.0
F0.0
F0.0
F0.0
tp954
sS'14,7,YY'
p955
(F-1.232
F0.718
F1.21
F1.054
F146.1
F1.0
tp956
sS'2,32,YY'
p957
(F3.172
F-0.135
F1.292
F1.079
F120.3
F1.0
tp958
sS'12,21,YY'
p959
(F-2.429
F0.649
F1.224
F1.134
F109.3
F1.0
tp960
sS'10,21,YY'
p961
(F-2.498
F0.609
F1.222
F1.151
F114.8
F1.0
tp962
sS'30,1,YY'
p963
(F0.072
F0.637
F1.12
F0.934
F163.9
F1.0
tp964
sS'24,19,XX'
p965
(F-1.349
F1.838
F1.241
F1.055
F40.1
F1.0
tp966
sS'24,7,YY'
p967
(F-1.35
F0.558
F1.215
F1.043
F130.9
F1.0
tp968
sS'2,26,XX'
p969
(F-0.616
F-2.532
F1.213
F1.11
F169.6
F1.0
tp970
sS'13,27,XX'
p971
(F-0.048
F-3.264
F1.397
F1.081
F13.6
F1.0
tp972
sS'2,20,YY'
p973
(F-1.921
F1.25
F1.191
F1.139
F63.2
F1.0
tp974
sS'13,25,XX'
p975
(F-1.294
F-1.98
F1.242
F1.174
F170.5
F1.0
tp976
sS'16,29,YY'
p977
(F0.0
F0.0
F0.0
F0.0
F0.0
F0.0
tp978
sS'5,7,XX'
p979
(F-1.386
F0.547
F1.238
F1.031
F49.9
F1.0
tp980
sS'30,19,YY'
p981
(F-1.272
F1.927
F1.418
F1.225
F36.5
F1.0
tp982
sS'5,12,YY'
p983
(F0.515
F-1.394
F1.147
F1.021
F144.3
F1.0
tp984
sS'28,22,YY'
p985
(F-3.168
F-0.253
F1.412
F1.128
F124.1
F1.0
tp986
sS'24,25,YY'
p987
(F-1.251
F-1.943
F1.229
F1.018
F145.2
F1.0
tp988
sS'28,16,XX'
p989
(F0.679
F1.169
F1.303
F1.139
F38.4
F1.0
tp990
sS'14,1,YY'
p991
(F0.033
F0.718
F1.265
F1.098
F147.7
F1.0
tp992
sS'30,29,XX'
p993
(F1.238
F-1.922
F1.276
F1.03
F28.3
F1.0
tp994
sS'27,33,YY'
p995
(F2.421
F0.518
F1.148
F0.989
F123.3
F1.0
tp996
sS'10,9,YY'
p997
(F-1.22
F-0.585
F1.288
F1.036
F131.3
F1.0
tp998
sS'5,22,YY'
p999
(F-3.283
F-0.239
F1.413
F1.152
F124.4
F1.0
tp1000
sS'4,12,YY'
p1001
(F0.552
F-1.35
F1.146
F1.008
F147.6
F1.0
tp1002
sS'12,6,YY'
p1003
(F-0.622
F1.367
F1.216
F1.073
F160.9
F1.0
tp1004
sS'16,35,YY'
p1005
(F1.177
F1.747
F1.361
F0.92
F104.5
F1.0
tp1006
sS'24,11,XX'
p1007
(F-0.051
F-1.932
F1.129
F1.027
F35.0
F1.0
tp1008
sS'2,4,YY'
p1009
(F-0.046
F-0.682
F1.158
F0.982
F136.9
F1.0
tp1010
sS'30,7,YY'
p1011
(F-1.188
F0.657
F1.139
F1.055
F144.7
F1.0
tp1012
sS'4,34,XX'
p1013
(F1.746
F1.107
F1.126
F1.097
F22.7
F1.0
tp1014
sS'12,25,XX'
p1015
(F-1.103
F-1.79
F1.233
F1.125
F44.8
F1.0
tp1016
sS'4,25,XX'
p1017
(F-1.231
F-1.967
F1.234
F1.127
F158.7
F1.0
tp1018
sS'16,5,XX'
p1019
(F-0.2
F1.915
F1.256
F1.064
F58.9
F1.0
tp1020
sS'2,12,YY'
p1021
(F0.585
F-1.346
F1.147
F1.01
F144.6
F1.0
tp1022
sS'12,32,XX'
p1023
(F3.342
F-0.137
F1.379
F1.183
F61.1
F1.0
tp1024
sS'4,16,YY'
p1025
(F0.608
F1.231
F1.247
F1.05
F134.1
F1.0
tp1026
sS'30,29,YY'
p1027
(F1.235
F-1.934
F1.233
F1.103
F159.1
F1.0
tp1028
sS'30,3,YY'
p1029
(F0.686
F0.015
F1.166
F0.994
F130.9
F1.0
tp1030
sS'2,14,XX'
p1031
(F1.8825
F-0.0355
F1.2435
F1.0865
F39.9
F1.0
tp1032
sS'27,1,XX'
p1033
(F-0.017
F0.65
F1.191
F0.984
F29.0
F1.0
tp1034
sS'5,3,YY'
p1035
(F0.579
F-0.059
F1.219
F1.041
F145.3
F1.0
tp1036
sS'4,4,XX'
p1037
(F-0.048
F-0.687
F1.144
F1.014
F40.1
F1.0
tp1038
sS'2,22,YY'
p1039
(F-3.196
F-0.213
F1.392
F1.135
F123.9
F1.0
tp1040
sS'10,36,XX'
p1041
(F0.663
F2.57
F1.2
F1.16
F129.0
F1.0
tp1042
sS'12,28,XX'
p1043
(F0.642
F-2.109
F1.174
F1.065
F27.6
F1.0
tp1044
sS'16,23,YY'
p1045
(F-2.6
F-0.705
F1.326
F1.046
F141.3
F1.0
tp1046
sS'13,9,YY'
p1047
(F-1.356
F-0.725
F1.243
F1.089
F129.2
F1.0
tp1048
sS'2,3,YY'
p1049
(F0.585
F-0.029
F1.203
F1.038
F146.3
F1.0
tp1050
sS'14,21,XX'
p1051
(F-2.538
F0.61
F1.247
F1.051
F55.5
F1.0
tp1052
sS'16,13,XX'
p1053
(F0.0
F0.0
F0.0
F0.0
F0.0
F0.0
tp1054
sS'16,31,XX'
p1055
(F0.0
F0.0
F0.0
F0.0
F0.0
F0.0
tp1056
sS'10,30,YY'
p1057
(F1.826
F-1.289
F1.209
F1.114
F4.4
F1.0
tp1058
sS'12,2,XX'
p1059
(F-0.595
F0.106
F1.181
F1.034
F42.9
F1.0
tp1060
sS'24,36,XX'
p1061
(F0.597
F2.467
F1.149
F1.11
F89.3
F1.0
tp1062
sS'13,21,YY'
p1063
(F-2.608
F0.492
F1.224
F1.192
F81.6
F1.0
tp1064
sS'10,5,XX'
p1065
(F0.039
F1.983
F1.229
F1.096
F41.3
F1.0
tp1066
sS'28,5,YY'
p1067
(F0.004
F1.833
F1.253
F1.085
F130.1
F1.0
tp1068
sS'4,27,XX'
p1069
(F-0.0
F-3.239
F1.384
F1.097
F18.1
F1.0
tp1070
sS'30,30,XX'
p1071
(F1.884
F-1.284
F1.145
F0.993
F29.0
F1.0
tp1072
sS'4,32,YY'
p1073
(F3.172
F-0.135
F1.314
F1.077
F115.3
F1.0
tp1074
sS'2,10,YY'
p1075
(F-0.62
F-1.325
F1.265
F1.024
F138.7
F1.0
tp1076
sS'27,12,YY'
p1077
(F0.516
F-1.336
F1.032
F0.951
F138.3
F1.0
tp1078
sS'12,19,XX'
p1079
(F-1.256
F2.002
F1.304
F1.06
F38.8
F1.0
tp1080
sS'30,24,YY'
p1081
(F-1.833
F-1.242
F1.207
F0.979
F115.5
F1.0
tp1082
sS'24,9,XX'
p1083
(F-1.329
F-0.717
F1.205
F1.086
F54.4
F1.0
tp1084
sS'30,12,XX'
p1085
(F0.668
F-1.194
F1.083
F0.946
F30.1
F1.0
tp1086
sS'13,34,YY'
p1087
(F1.86
F1.154
F1.184
F1.042
F129.9
F1.0
tp1088
sS'30,20,YY'
p1089
(F-1.94
F1.271
F1.198
F1.058
F96.9
F1.0
tp1090
sS'10,10,YY'
p1091
(F-0.595
F-1.239
F1.274
F1.072
F136.4
F1.0
tp1092
sS'16,12,XX'
p1093
(F0.392
F-1.247
F1.257
F0.994
F35.7
F1.0
tp1094
sS'14,5,YY'
p1095
(F0.039
F1.998
F1.284
F1.084
F130.3
F1.0
tp1096
sS'12,23,YY'
p1097
(F-2.406
F-0.585
F1.294
F1.064
F137.8
F1.0
tp1098
sS'24,21,XX'
p1099
(F-2.564
F0.488
F1.365
F1.073
F62.3
F1.0
tp1100
sS'24,23,XX'
p1101
(F-2.459
F-0.735
F1.226
F1.205
F62.2
F1.0
tp1102
sS'30,9,XX'
p1103
(F-1.121
F-0.608
F1.184
F1.128
F97.1
F1.0
tp1104
sS'28,23,XX'
p1105
(F-2.453
F-0.79
F1.172
F1.143
F30.2
F1.0
tp1106
sS'14,25,YY'
p1107
(F-1.175
F-1.816
F1.267
F1.06
F140.4
F1.0
tp1108
sS'10,25,YY'
p1109
(F-1.185
F-1.832
F1.274
F1.071
F141.1
F1.0
tp1110
sS'4,19,XX'
p1111
(F-1.3
F1.802
F1.245
F1.065
F39.0
F1.0
tp1112
sS'13,7,XX'
p1113
(F-1.38
F0.575
F1.256
F1.029
F41.5
F1.0
tp1114
sS'30,10,YY'
p1115
(F-0.499
F-1.158
F1.246
F0.913
F147.4
F1.0
tp1116
sS'5,28,XX'
p1117
(F0.52
F-2.61
F1.27
F1.004
F28.2
F1.0
tp1118
sS'10,17,YY'
p1119
(F0.072
F3.188
F1.345
F1.111
F143.6
F1.0
tp1120
sS'4,36,XX'
p1121
(F0.61
F2.49
F1.177
F1.135
F93.0
F1.0
tp1122
sS'2,36,YY'
p1123
(F0.626
F2.525
F1.347
F1.047
F136.7
F1.0
tp1124
sS'13,36,XX'
p1125
(F0.52
F2.442
F1.184
F1.166
F115.4
F1.0
tp1126
sS'14,30,XX'
p1127
(F1.855
F-1.262
F1.259
F1.037
F36.0
F1.0
tp1128
sS'10,1,YY'
p1129
(F0.012
F0.677
F1.203
F1.037
F153.0
F1.0
tp1130
sS'14,17,YY'
p1131
(F0.11
F3.207
F1.373
F1.113
F141.2
F1.0
tp1132
sS'13,9,XX'
p1133
(F-1.376
F-0.707
F1.272
F1.083
F45.0
F1.0
tp1134
sS'30,16,YY'
p1135
(F0.695
F1.289
F1.186
F0.962
F141.2
F1.0
tp1136
sS'10,7,YY'
p1137
(F-1.291
F0.669
F1.215
F1.056
F124.3
F1.0
tp1138
sS'5,19,YY'
p1139
(F-1.406
F1.812
F1.255
F1.197
F30.2
F1.0
tp1140
sS'27,7,XX'
p1141
(F-1.121
F0.605
F1.293
F0.973
F40.8
F1.0
tp1142
sS'5,20,XX'
p1143
(F-2.001
F1.148
F1.258
F1.042
F52.4
F1.0
tp1144
sS'10,19,YY'
p1145
(F-1.303
F1.937
F1.259
F1.208
F48.3
F1.0
tp1146
sS'5,15,YY'
p1147
(F1.207
F0.555
F1.248
F1.074
F129.8
F1.0
tp1148
sS'13,3,YY'
p1149
(F0.514
F-0.091
F1.231
F1.043
F147.0
F1.0
tp1150
sS'2,9,YY'
p1151
(F-1.265
F-0.676
F1.271
F1.05
F131.3
F1.0
tp1152
sS'5,5,YY'
p1153
(F-0.091
F1.831
F1.269
F1.091
F132.0
F1.0
tp1154
sS'28,32,YY'
p1155
(F3.169
F-0.194
F1.291
F1.119
F109.4
F1.0
tp1156
sS'27,5,YY'
p1157
(F-0.044
F1.917
F1.239
F1.091
F142.4
F1.0
tp1158
sS'24,29,YY'
p1159
(F1.139
F-2.012
F1.15
F1.028
F4.1
F1.0
tp1160
sS'30,9,YY'
p1161
(F-1.158
F-0.596
F1.206
F1.014
F115.4
F1.0
tp1162
sS'16,7,XX'
p1163
(F-1.577
F0.512
F1.106
F0.981
F3.8
F1.0
tp1164
sS'30,5,YY'
p1165
(F0.068
F1.98
F1.332
F1.245
F151.1
F1.0
tp1166
sS'12,30,XX'
p1167
(F1.986
F-1.233
F1.276
F1.059
F31.7
F1.0
tp1168
sS'16,9,XX'
p1169
(F-1.482
F-0.66
F1.164
F1.041
F39.2
F1.0
tp1170
sS'24,13,XX'
p1171
(F1.156
F-0.714
F1.211
F1.016
F40.5
F1.0
tp1172
sS'16,19,XX'
p1173
(F-1.419
F1.942
F1.291
F0.983
F38.5
F1.0
tp1174
sS'28,3,XX'
p1175
(F0.618
F-0.115
F1.214
F1.028
F34.0
F1.0
tp1176
sS'16,1,XX'
p1177
(F0.0
F0.0
F0.0
F0.0
F0.0
F0.0
tp1178
sS'24,15,XX'
p1179
(F1.235
F0.563
F1.219
F1.109
F47.0
F1.0
tp1180
sS'13,33,YY'
p1181
(F2.47
F0.431
F1.254
F1.038
F129.9
F1.0
tp1182
sS'24,27,YY'
p1183
(F-0.113
F-3.247
F1.403
F1.081
F155.7
F1.0
tp1184
sS'10,34,XX'
p1185
(F2.048
F1.264
F1.202
F1.164
F64.9
F1.0
tp1186
sS'14,23,YY'
p1187
(F-2.444
F-0.637
F1.302
F1.056
F138.8
F1.0
tp1188
sS'28,25,YY'
p1189
(F-1.189
F-1.949
F1.262
F1.04
F142.7
F1.0
tp1190
sS'28,27,YY'
p1191
(F-0.046
F-3.26
F1.346
F1.048
F158.1
F1.0
tp1192
sS'12,4,XX'
p1193
(F-0.032
F-0.563
F1.201
F0.986
F47.0
F1.0
tp1194
sS'2,24,YY'
p1195
(F-1.833
F-1.355
F1.29
F1.03
F138.7
F1.0
tp1196
sS'14,19,XX'
p1197
(F-1.282
F1.959
F1.275
F1.069
F44.0
F1.0
tp1198
sS'13,23,XX'
p1199
(F-2.496
F-0.763
F1.212
F1.071
F163.7
F1.0
tp1200
sS'14,34,XX'
p1201
(F2.039
F1.277
F1.245
F1.107
F113.4
F1.0
tp1202
sS'28,30,YY'
p1203
(F1.805
F-1.428
F1.183
F1.062
F175.5
F1.0
tp1204
sS'27,33,XX'
p1205
(F2.424
F0.549
F1.14
F1.016
F54.2
F1.0
tp1206
sS'5,22,XX'
p1207
(F-3.266
F-0.128
F1.38
F1.186
F58.4
F1.0
tp1208
sS'5,17,YY'
p1209
(F-0.05
F3.054
F1.349
F1.121
F137.8
F1.0
tp1210
sS'12,6,XX'
p1211
(F-0.607
F1.351
F1.253
F1.04
F36.3
F1.0
tp1212
sS'10,23,YY'
p1213
(F-2.461
F-0.656
F1.318
F1.066
F138.6
F1.0
tp1214
sS'24,3,YY'
p1215
(F0.571
F-0.045
F1.191
F1.028
F139.1
F1.0
tp1216
sS'2,34,YY'
p1217
(F1.93
F1.225
F1.276
F1.025
F123.3
F1.0
tp1218
sS'16,35,XX'
p1219
(F0.0
F0.0
F0.0
F0.0
F0.0
F0.0
tp1220
sS'24,11,YY'
p1221
(F-0.048
F-1.947
F1.218
F1.011
F142.1
F1.0
tp1222
sS'14,6,YY'
p1223
(F-0.636
F1.349
F1.194
F1.068
F149.4
F1.0
tp1224
sS'30,34,XX'
p1225
(F2.056
F1.26
F1.198
F1.141
F119.7
F1.0
tp1226
sS'16,5,YY'
p1227
(F-0.259
F1.84
F1.217
F1.122
F144.9
F1.0
tp1228
sS'2,12,XX'
p1229
(F0.554
F-1.288
F1.145
F0.994
F34.3
F1.0
tp1230
sS'27,3,XX'
p1231
(F0.567
F0.0
F1.272
F1.002
F19.3
F1.0
tp1232
sS'4,16,XX'
p1233
(F0.632
F1.252
F1.215
F1.105
F61.0
F1.0
tp1234
sS'12,32,YY'
p1235
(F3.362
F-0.018
F1.396
F1.141
F118.6
F1.0
tp1236
sS'2,1,YY'
p1237
(F0.012
F0.637
F1.212
F1.041
F148.7
F1.0
tp1238
sS'24,34,XX'
p1239
(F1.905
F1.136
F1.143
F1.1
F114.9
F1.0
tp1240
sS'28,7,XX'
p1241
(F-1.288
F0.518
F1.184
F1.012
F50.5
F1.0
tp1242
sS'27,26,XX'
p1243
(F-0.402
F-2.458
F1.194
F0.976
F24.4
F1.0
tp1244
sS'28,36,XX'
p1245
(F0.607
F2.43
F1.168
F1.144
F92.6
F1.0
tp1246
sS'4,30,XX'
p1247
(F1.798
F-1.365
F1.215
F1.031
F27.4
F1.0
tp1248
sS'28,34,XX'
p1249
(F1.922
F1.117
F1.181
F1.111
F114.7
F1.0
tp1250
sS'27,22,XX'
p1251
(F-3.904
F0.16
F1.396
F1.006
F65.8
F1.0
tp1252
sS'14,28,YY'
p1253
(F0.61
F-2.422
F1.17
F1.053
F161.7
F1.0
tp1254
sS'28,9,YY'
p1255
(F-1.265
F-0.737
F1.241
F1.063
F140.1
F1.0
tp1256
sS'14,13,YY'
p1257
(F1.274
F-0.597
F1.205
F1.048
F152.4
F1.0
tp1258
sS'12,36,XX'
p1259
(F0.779
F2.64
F1.251
F1.169
F120.8
F1.0
tp1260
sS'27,18,YY'
p1261
(F-0.624
F2.525
F1.228
F1.168
F4.4
F1.0
tp1262
sS'28,25,XX'
p1263
(F-1.213
F-2.012
F1.225
F1.139
F172.7
F1.0
tp1264
sS'10,32,XX'
p1265
(F0.843
F0.81
F1.127
F1.074
F125.0
F1.0
tp1266
sS'27,8,XX'
p1267
(F-1.639
F-0.017
F1.447
F0.972
F27.9
F1.0
tp1268
sS'16,24,YY'
p1269
(F-1.967
F-1.357
F1.346
F1.026
F144.9
F1.0
tp1270
sS'10,5,YY'
p1271
(F-0.002
F1.952
F1.256
F1.066
F139.2
F1.0
tp1272
sS'13,21,XX'
p1273
(F-2.626
F0.499
F1.34
F1.057
F61.4
F1.0
tp1274
sS'28,5,XX'
p1275
(F0.045
F1.835
F1.258
F1.094
F44.8
F1.0
tp1276
sS'4,32,XX'
p1277
(F3.169
F-0.251
F1.36
F1.097
F53.9
F1.0
tp1278
sS'2,10,XX'
p1279
(F-0.605
F-1.254
F1.203
F1.084
F41.7
F1.0
tp1280
sS'2,19,XX'
p1281
(F-1.311
F1.869
F1.291
F1.065
F40.1
F1.0
tp1282
sS'2,7,YY'
p1283
(F-1.295
F0.595
F1.21
F1.055
F135.0
F1.0
tp1284
sS'5,7,YY'
p1285
(F-1.396
F0.546
F1.215
F1.071
F126.9
F1.0
tp1286
sS'30,24,XX'
p1287
(F-1.798
F-1.206
F1.042
F0.994
F124.9
F1.0
tp1288
sS'30,20,XX'
p1289
(F-1.855
F1.322
F1.202
F1.06
F72.1
F1.0
tp1290
sS'28,21,YY'
p1291
(F-2.514
F0.44
F1.212
F1.181
F89.0
F1.0
tp1292
sS'24,7,XX'
p1293
(F-1.333
F0.566
F1.168
F1.007
F54.0
F1.0
tp1294
sS'24,19,YY'
p1295
(F-1.335
F1.83
F1.214
F1.179
F13.5
F1.0
tp1296
sS'2,26,YY'
p1297
(F-0.609
F-2.572
F1.341
F1.037
F151.4
F1.0
tp1298
sS'27,15,YY'
p1299
(F1.179
F0.619
F1.301
F1.035
F129.6
F1.0
tp1300
sS'27,29,XX'
p1301
(F1.113
F-1.946
F1.195
F0.948
F32.2
F1.0
tp1302
sS'10,15,YY'
p1303
(F1.297
F0.674
F1.267
F1.058
F130.7
F1.0
tp1304
sS'28,15,XX'
p1305
(F1.292
F0.542
F1.3
F1.191
F47.1
F1.0
tp1306
sS'30,19,XX'
p1307
(F-1.313
F1.929
F1.467
F1.253
F20.1
F1.0
tp1308
sS'12,9,XX'
p1309
(F-1.205
F-0.556
F1.229
F1.084
F54.9
F1.0
tp1310
sS'14,32,XX'
p1311
(F3.256
F-0.162
F1.339
F1.116
F59.0
F1.0
tp1312
sS'4,10,YY'
p1313
(F-0.669
F-1.325
F1.275
F1.062
F138.7
F1.0
tp1314
sS'16,20,YY'
p1315
(F-1.831
F1.491
F1.215
F1.099
F44.9
F1.0
tp1316
sS'16,15,YY'
p1317
(F0.0
F0.0
F0.0
F0.0
F0.0
F0.0
tp1318
sS'14,2,YY'
p1319
(F-0.624
F0.047
F1.156
F0.991
F132.0
F1.0
tp1320
sS'24,25,XX'
p1321
(F-1.23
F-1.949
F1.153
F1.102
F173.2
F1.0
tp1322
sS'2,36,XX'
p1323
(F0.6085
F2.5135
F1.192
F1.149
F96.75
F1.0
tp1324
sS'10,22,YY'
p1325
(F-3.118
F-0.116
F1.311
F1.11
F130.2
F1.0
tp1326
sS'2,20,XX'
p1327
(F-1.933
F1.205
F1.234
F1.029
F49.5
F1.0
tp1328
sS'14,30,YY'
p1329
(F1.858
F-1.302
F1.206
F1.099
F4.5
F1.0
tp1330
sS'14,11,YY'
p1331
(F0.05
F-1.81
F1.293
F1.025
F136.9
F1.0
tp1332
sS'14,17,XX'
p1333
(F-0.019
F3.228
F1.35
F1.163
F39.9
F1.0
tp1334
sS'5,19,XX'
p1335
(F-1.397
F1.813
F1.3
F1.082
F42.1
F1.0
tp1336
sS'27,11,XX'
p1337
(F-0.033
F-1.906
F1.201
F1.072
F24.5
F1.0
tp1338
sS'2,30,YY'
p1339
(F1.7925
F-1.383
F1.2075
F1.095
F169.9
F1.0
tp1340
sS'5,15,XX'
p1341
(F1.222
F0.575
F1.241
F1.103
F49.6
F1.0
tp1342
sS'10,19,XX'
p1343
(F-1.311
F1.946
F1.327
F1.09
F41.6
F1.0
tp1344
sS'13,3,XX'
p1345
(F0.535
F-0.067
F1.224
F1.026
F33.0
F1.0
tp1346
sS'2,9,XX'
p1347
(F-1.279
F-0.689
F1.229
F1.097
F52.0
F1.0
tp1348
sS'13,29,YY'
p1349
(F1.108
F-2.006
F1.145
F1.039
F178.5
F1.0
tp1350
sS'28,32,XX'
p1351
(F3.161
F-0.292
F1.342
F1.075
F53.5
F1.0
tp1352
sS'28,2,XX'
p1353
(F-0.625
F-0.081
F1.179
F1.028
F42.6
F1.0
tp1354
sS'2,16,YY'
p1355
(F0.608
F1.231
F1.247
F1.053
F134.1
F1.0
tp1356
sS'4,2,XX'
p1357
(F-0.705
F-0.027
F1.171
F1.022
F40.7
F1.0
tp1358
sS'27,1,YY'
p1359
(F-0.006
F0.638
F1.169
F0.985
F154.5
F1.0
tp1360
sS'30,12,YY'
p1361
(F0.675
F-1.212
F1.231
F1.091
F136.5
F1.0
tp1362
sS'4,4,YY'
p1363
(F-0.058
F-0.691
F1.167
F1.002
F141.1
F1.0
tp1364
sS'30,26,YY'
p1365
(F-0.529
F-2.441
F1.429
F1.119
F150.3
F1.0
tp1366
sS'10,36,YY'
p1367
(F0.685
F2.593
F1.363
F1.047
F135.9
F1.0
tp1368
sS'2,3,XX'
p1369
(F0.576
F-0.038
F1.224
F1.027
F33.0
F1.0
tp1370
sS'14,21,YY'
p1371
(F-2.491
F0.604
F1.199
F1.131
F129.5
F1.0
tp1372
sS'10,26,YY'
p1373
(F-0.609
F-2.502
F1.307
F1.058
F151.6
F1.0
tp1374
sS'28,29,YY'
p1375
(F1.166
F-2.016
F1.165
F1.031
F175.0
F1.0
tp1376
sS'2,28,XX'
p1377
(F0.556
F-2.582
F1.243
F0.999
F27.6
F1.0
tp1378
sS'4,29,YY'
p1379
(F1.136
F-1.948
F1.131
F1.053
F178.1
F1.0
tp1380
sS'5,8,XX'
p1381
(F-1.995
F-0.131
F1.278
F1.09
F48.0
F1.0
tp1382
sS'16,15,XX'
p1383
(F0.0
F0.0
F0.0
F0.0
F0.0
F0.0
tp1384
sS'24,27,XX'
p1385
(F0.018
F-3.264
F1.373
F1.09
F19.9
F1.0
tp1386
sS'10,34,YY'
p1387
(F1.988
F1.277
F1.272
F1.051
F120.9
F1.0
tp1388
sS'4,31,YY'
p1389
(F2.434
F-0.768
F1.218
F1.181
F146.1
F1.0
tp1390
sS'27,17,YY'
p1391
(F0.02
F3.172
F1.295
F1.114
F154.5
F1.0
tp1392
sS'28,18,XX'
p1393
(F-0.681
F2.48
F1.31
F1.068
F49.9
F1.0
tp1394
sS'10,8,YY'
p1395
(F-1.89
F0.029
F1.279
F1.047
F133.3
F1.0
tp1396
sS'28,27,XX'
p1397
(F0.054
F-3.273
F1.341
F1.035
F16.7
F1.0
tp1398
sS'27,35,XX'
p1399
(F1.187
F1.83
F1.144
F1.011
F102.2
F1.0
tp1400
sS'10,13,YY'
p1401
(F1.252
F-0.62
F1.207
F1.063
F151.9
F1.0
tp1402
sS'14,26,YY'
p1403
(F-0.557
F-2.453
F1.319
F1.045
F151.3
F1.0
tp1404
sS'10,11,YY'
p1405
(F0.029
F-1.854
F1.371
F1.098
F139.3
F1.0
tp1406
sS'4,8,XX'
p1407
(F-1.93
F-0.101
F1.268
F1.094
F45.5
F1.0
tp1408
sS'14,36,XX'
p1409
(F0.698
F2.597
F1.214
F1.164
F129.2
F1.0
tp1410
sS'16,16,YY'
p1411
(F0.425
F1.216
F1.092
F0.977
F136.1
F1.0
tp1412
sS'16,3,XX'
p1413
(F0.499
F0.04
F1.238
F1.027
F27.3
F1.0
tp1414
sS'10,2,YY'
p1415
(F-0.634
F0.019
F1.188
F1.02
F131.7
F1.0
tp1416
sS'16,26,YY'
p1417
(F-0.71
F-2.589
F1.42
F0.959
F151.4
F1.0
tp1418
sS'24,17,XX'
p1419
(F-0.106
F3.102
F1.28
F1.108
F39.9
F1.0
tp1420
sS'14,8,YY'
p1421
(F-1.881
F-0.005
F1.227
F0.992
F113.3
F1.0
tp1422
sS'2,5,YY'
p1423
(F-0.044
F1.895
F1.269
F1.091
F132.6
F1.0
tp1424
sS'12,10,XX'
p1425
(F-0.575
F-1.175
F1.189
F1.084
F26.1
F1.0
tp1426
sS'5,32,XX'
p1427
(F3.127
F-0.301
F1.356
F1.08
F48.8
F1.0
tp1428
sS'4,19,YY'
p1429
(F-1.153
F1.864
F1.236
F1.117
F5.9
F1.0
tp1430
sS'5,13,YY'
p1431
(F1.185
F-0.76
F1.219
F1.058
F147.5
F1.0
tp1432
sS'5,11,YY'
p1433
(F-0.083
F-1.99
F1.273
F1.08
F143.2
F1.0
tp1434
sS'12,34,XX'
p1435
(F2.14
F1.306
F1.239
F1.144
F122.5
F1.0
tp1436
sS'10,17,XX'
p1437
(F-0.054
F3.212
F1.348
F1.133
F33.5
F1.0
tp1438
sS'28,19,XX'
p1439
(F-1.311
F1.794
F1.294
F1.065
F43.1
F1.0
tp1440
sS'4,6,XX'
p1441
(F-0.695
F1.208
F1.262
F1.052
F37.0
F1.0
tp1442
sS'28,17,XX'
p1443
(F-0.064
F3.077
F1.297
F1.075
F21.8
F1.0
tp1444
sS'10,28,YY'
p1445
(F0.592
F-2.45
F1.192
F1.015
F153.1
F1.0
tp1446
sS'28,9,XX'
p1447
(F-1.279
F-0.748
F1.212
F1.034
F38.2
F1.0
tp1448
sS'14,28,XX'
p1449
(F0.606
F-2.469
F1.243
F0.983
F26.4
F1.0
tp1450
sS'14,13,XX'
p1451
(F1.255
F-0.588
F1.215
F1.031
F34.0
F1.0
tp1452
sS'28,11,XX'
p1453
(F-0.005
F-1.999
F1.254
F1.052
F42.1
F1.0
tp1454
sS'2,21,YY'
p1455
(F-2.498
F0.494
F1.224
F1.151
F104.5
F1.0
tp1456
sS'12,36,YY'
p1457
(F0.759
F2.64
F1.366
F1.071
F135.7
F1.0
tp1458
sS'10,32,YY'
p1459
(F3.243
F-0.073
F1.342
F1.079
F117.1
F1.0
tp1460
sS'2,1,XX'
p1461
(F-0.0305
F0.626
F1.2305
F1.051
F37.5
F1.0
tp1462
sS'24,13,YY'
p1463
(F1.173
F-0.724
F1.151
F1.052
F143.0
F1.0
tp1464
sS'28,23,YY'
p1465
(F-2.465
F-0.778
F1.281
F1.044
F135.5
F1.0
tp1466
sS'12,24,YY'
p1467
(F-1.746
F-1.195
F1.203
F1.053
F146.1
F1.0
tp1468
sS'10,20,YY'
p1469
(F-1.934
F1.276
F1.177
F1.145
F37.3
F1.0
tp1470
sS'24,29,XX'
p1471
(F1.131
F-1.997
F1.213
F0.972
F27.0
F1.0
tp1472
sS'16,7,YY'
p1473
(F-1.542
F0.497
F1.233
F0.958
F160.9
F1.0
tp1474
sS'13,13,XX'
p1475
(F1.137
F-0.712
F1.235
F1.051
F38.5
F1.0
tp1476
sS'12,12,XX'
p1477
(F0.642
F-1.242
F1.186
F0.994
F26.5
F1.0
tp1478
sS'16,9,YY'
p1479
(F-1.449
F-0.676
F1.21
F1.021
F144.6
F1.0
tp1480
sS'12,30,YY'
p1481
(F1.8
F-1.427
F1.234
F1.144
F36.8
F1.0
tp1482
sS'16,1,YY'
p1483
(F0.051
F0.752
F1.249
F0.985
F169.0
F1.0
tp1484
sS'5,10,YY'
p1485
(F-0.709
F-1.375
F1.279
F1.074
F135.9
F1.0
tp1486
sS'24,15,YY'
p1487
(F1.209
F0.542
F1.264
F1.081
F130.3
F1.0
tp1488
sS'10,15,XX'
p1489
(F1.485
F0.638
F1.198
F1.092
F30.9
F1.0
tp1490
sS'24,5,YY'
p1491
(F-0.072
F1.865
F1.249
F1.121
F132.7
F1.0
tp1492
sS'27,15,XX'
p1493
(F1.214
F0.673
F1.212
F1.157
F72.1
F1.0
tp1494
sS'30,11,YY'
p1495
(F0.132
F-1.742
F1.21
F1.038
F142.6
F1.0
tp1496
sS'27,29,YY'
p1497
(F1.125
F-1.939
F1.079
F1.024
F43.1
F1.0
tp1498
sS'14,15,YY'
p1499
(F1.287
F0.7
F1.242
F1.044
F137.0
F1.0
tp1500
sS'28,15,YY'
p1501
(F1.264
F0.539
F1.415
F1.139
F127.9
F1.0
tp1502
sS'30,31,YY'
p1503
(F2.507
F-0.624
F1.158
F1.049
F143.2
F1.0
tp1504
sS'12,14,XX'
p1505
(F2.126
F0.002
F1.237
F1.053
F23.6
F1.0
tp1506
sS'12,9,YY'
p1507
(F-1.177
F-0.542
F1.29
F1.055
F129.6
F1.0
tp1508
sS'27,13,YY'
p1509
(F1.187
F-0.66
F1.242
F0.948
F168.2
F1.0
tp1510
sS'30,28,YY'
p1511
(F0.698
F-2.452
F1.182
F1.027
F169.6
F1.0
tp1512
sS'4,10,XX'
p1513
(F-0.669
F-1.308
F1.214
F1.096
F41.7
F1.0
tp1514
sS'14,32,YY'
p1515
(F3.302
F-0.028
F1.389
F1.063
F120.3
F1.0
tp1516
sS'27,36,YY'
p1517
(F0.582
F2.536
F1.295
F1.032
F145.0
F1.0
tp1518
sS'16,20,XX'
p1519
(F-2.202
F1.308
F1.199
F1.021
F34.3
F1.0
tp1520
sS'24,1,YY'
p1521
(F-0.044
F0.575
F1.212
F1.034
F148.7
F1.0
tp1522
sS'14,2,XX'
p1523
(F-0.624
F0.071
F1.171
F1.006
F39.8
F1.0
tp1524
sS'14,34,YY'
p1525
(F1.93
F1.378
F1.372
F0.992
F124.1
F1.0
tp1526
sS'28,30,XX'
p1527
(F1.81
F-1.407
F1.232
F1.019
F30.6
F1.0
tp1528
sS'27,31,YY'
p1529
(F2.378
F-0.778
F1.238
F1.117
F32.2
F1.0
tp1530
sS'5,17,XX'
p1531
(F-0.159
F3.071
F1.309
F1.126
F37.5
F1.0
tp1532
sS'24,3,XX'
p1533
(F0.577
F-0.047
F1.262
F1.056
F42.0
F1.0
tp1534
sS'30,2,YY'
p1535
(F-0.548
F0.037
F1.319
F1.065
F152.0
F1.0
tp1536
sS'2,34,XX'
p1537
(F1.9135
F1.174
F1.1835
F1.117
F109.95
F1.0
tp1538
sS'30,34,YY'
p1539
(F2.042
F1.225
F1.274
F1.046
F107.8
F1.0
tp1540
sS'27,3,YY'
p1541
(F0.558
F-0.025
F1.203
F0.984
F163.5
F1.0
tp1542
sS'4,14,YY'
p1543
(F1.882
F-0.074
F1.266
F1.093
F130.3
F1.0
tp1544
sS'28,1,XX'
p1545
(F-0.006
F0.531
F1.272
F1.057
F42.8
F1.0
tp1546
sS'2,16,XX'
p1547
(F0.626
F1.277
F1.231
F1.109
F50.5
F1.0
tp1548
sS'4,2,YY'
p1549
(F-0.683
F-0.075
F1.167
F1.0
F136.6
F1.0
tp1550
sS'28,28,YY'
p1551
(F0.59
F-2.588
F1.161
F1.057
F159.5
F1.0
tp1552
sS'30,33,YY'
p1553
(F2.673
F0.644
F1.417
F0.942
F115.7
F1.0
tp1554
sS'30,26,XX'
p1555
(F-0.554
F-2.428
F1.21
F1.043
F152.8
F1.0
tp1556
sS'10,26,XX'
p1557
(F-0.536
F-2.445
F1.206
F1.089
F24.7
F1.0
tp1558
sS'16,22,YY'
p1559
(F-3.323
F-0.188
F1.441
F1.135
F122.6
F1.0
tp1560
sS'13,19,XX'
p1561
(F-1.403
F1.825
F1.281
F1.07
F40.7
F1.0
tp1562
sS'28,29,XX'
p1563
(F1.169
F-2.016
F1.2
F0.978
F25.4
F1.0
tp1564
sS'10,6,YY'
p1565
(F-0.642
F1.323
F1.2
F1.082
F146.6
F1.0
tp1566
sS'2,28,YY'
p1567
(F0.54
F-2.513
F1.17
F1.055
F159.5
F1.0
tp1568
sS'10,31,YY'
p1569
(F2.506
F-0.674
F1.235
F1.178
F111.0
F1.0
tp1570
sS'16,24,XX'
p1571
(F-1.982
F-1.279
F1.283
F1.122
F165.8
F1.0
tp1572
sS'27,11,YY'
p1573
(F0.086
F-1.815
F1.239
F1.031
F153.1
F1.0
tp1574
sS'16,17,YY'
p1575
(F0.0
F0.0
F0.0
F0.0
F0.0
F0.0
tp1576
sS'2,19,YY'
p1577
(F-1.303
F1.897
F1.247
F1.179
F36.5
F1.0
tp1578
sS'2,7,XX'
p1579
(F-1.289
F0.575
F1.238
F1.024
F49.9
F1.0
tp1580
sS'16,28,YY'
p1581
(F0.361
F-2.5
F1.17
F1.04
F153.8
F1.0
tp1582
sS'2,23,YY'
p1583
(F-2.5045
F-0.7125
F1.322
F1.06
F138.2
F1.0
tp1584
sS'30,22,YY'
p1585
(F-3.446
F-0.186
F1.673
F1.333
F104.8
F1.0
tp1586
sS'28,21,XX'
p1587
(F-2.548
F0.439
F1.39
F1.071
F57.1
F1.0
tp1588
sS'2,6,YY'
p1589
(F-0.643
F1.307
F1.216
F1.082
F146.6
F1.0
tp1590
sS'2,25,YY'
p1591
(F-1.189
F-1.846
F1.267
F1.04
F142.7
F1.0
tp1592
sS'16,3,YY'
p1593
(F0.465
F-0.072
F1.12
F0.968
F156.1
F1.0
tp1594
sS'10,2,XX'
p1595
(F-0.627
F0.053
F1.202
F1.054
F45.7
F1.0
tp1596
sS'12,33,YY'
p1597
(F2.728
F0.628
F1.396
F1.018
F120.3
F1.0
tp1598
sS'13,31,XX'
p1599
(F2.38
F-0.816
F1.309
F1.066
F48.3
F1.0
tp1600
sS'16,26,XX'
p1601
(F-0.81
F-2.532
F1.229
F1.11
F160.7
F1.0
tp1602
sS'14,8,XX'
p1603
(F-1.86
F-0.028
F1.226
F1.006
F66.6
F1.0
tp1604
sS'24,17,YY'
p1605
(F0.005
F3.052
F1.32
F1.09
F141.3
F1.0
tp1606
sS'2,5,XX'
p1607
(F-0.004
F1.903
F1.254
F1.106
F49.0
F1.0
tp1608
sS'16,11,YY'
p1609
(F-0.141
F-1.916
F1.293
F1.023
F148.7
F1.0
tp1610
sS'12,10,YY'
p1611
(F-0.593
F-1.218
F1.254
F1.034
F148.7
F1.0
tp1612
sS'5,32,YY'
p1613
(F3.138
F-0.196
F1.292
F1.111
F120.3
F1.0
tp1614
sS'14,4,XX'
p1615
(F0.022
F-0.57
F1.132
F1.011
F39.9
F1.0
tp1616
sS'5,13,XX'
p1617
(F1.158
F-0.73
F1.219
F1.042
F37.0
F1.0
tp1618
sS'5,11,XX'
p1619
(F-0.084
F-1.997
F1.244
F1.07
F36.9
F1.0
tp1620
sS'30,4,YY'
p1621
(F0.05
F-0.564
F1.008
F0.836
F121.7
F1.0
tp1622
sS'10,24,YY'
p1623
(F-1.806
F-1.272
F1.293
F1.009
F144.6
F1.0
tp1624
sS'16,18,XX'
p1625
(F0.0
F0.0
F0.0
F0.0
F0.0
F0.0
tp1626
sS'10,22,XX'
p1627
(F-3.113
F-0.011
F1.297
F1.099
F47.7
F1.0
tp1628
sS'30,32,YY'
p1629
(F3.272
F-0.008
F1.254
F1.086
F86.4
F1.0
tp1630
sS'13,11,XX'
p1631
(F-0.128
F-1.983
F1.247
F1.097
F36.9
F1.0
tp1632
sS'2,30,XX'
p1633
(F1.7805
F-1.3385
F1.227
F1.032
F29.8
F1.0
tp1634
sS'30,7,XX'
p1635
(F-1.244
F0.531
F1.356
F1.186
F160.3
F1.0
tp1636
sS'14,11,XX'
p1637
(F0.022
F-1.823
F1.164
F1.085
F39.4
F1.0
tp1638
sS'13,30,XX'
p1639
(F1.73
F-1.397
F1.248
F1.033
F31.6
F1.0
tp1640
sS'27,25,XX'
p1641
(F-0.881
F-1.642
F1.281
F0.952
F34.2
F1.0
tp1642
sS'13,29,XX'
p1643
(F1.097
F-1.979
F1.196
F0.971
F31.0
F1.0
tp1644
sS'12,22,YY'
p1645
(F-3.097
F-0.052
F1.45
F1.198
F123.9
F1.0
tp1646
sS'28,19,YY'
p1647
(F-1.312
F1.788
F1.247
F1.191
F167.2
F1.0
tp1648
sS'13,33,XX'
p1649
(F2.453
F0.453
F1.145
F1.122
F30.9
F1.0
tp1650
sS'12,24,XX'
p1651
(F-1.74
F-1.148
F1.195
F1.111
F34.4
F1.0
tp1652
sS'10,20,XX'
p1653
(F-1.906
F1.247
F1.216
F1.016
F47.7
F1.0
tp1654
sS'16,12,YY'
p1655
(F0.355
F-1.351
F1.203
F1.024
F160.5
F1.0
tp1656
sS'13,13,YY'
p1657
(F1.185
F-0.727
F1.179
F1.061
F155.8
F1.0
tp1658
sS'2,22,XX'
p1659
(F-3.186
F-0.012
F1.38
F1.17
F54.6
F1.0
tp1660
sS'12,12,YY'
p1661
(F0.668
F-1.275
F1.185
F1.01
F135.5
F1.0
tp1662
sS'14,20,YY'
p1663
(F-1.907
F1.259
F1.191
F1.171
F18.0
F1.0
tp1664
sS'14,6,XX'
p1665
(F-0.624
F1.317
F1.226
F1.028
F36.6
F1.0
tp1666
sS'28,13,XX'
p1667
(F1.229
F-0.746
F1.224
F1.043
F34.3
F1.0
tp1668
sS'12,34,YY'
p1669
(F2.1
F1.324
F1.312
F1.041
F123.3
F1.0
tp1670
sS'5,36,XX'
p1671
(F0.559
F2.463
F1.183
F1.154
F100.5
F1.0
tp1672
sS'27,17,XX'
p1673
(F-0.11
F3.229
F1.346
F1.151
F26.0
F1.0
tp1674
sS'10,8,XX'
p1675
(F-1.888
F0.014
F1.229
F1.083
F44.5
F1.0
tp1676
sS'12,20,YY'
p1677
(F-1.861
F1.308
F1.154
F1.139
F127.7
F1.0
tp1678
sS'27,4,YY'
p1679
(F-0.046
F-0.65
F1.145
F0.912
F146.7
F1.0
tp1680
sS'14,36,YY'
p1681
(F0.688
F2.601
F1.331
F1.058
F136.9
F1.0
tp1682
sS'10,13,XX'
p1683
(F1.238
F-0.605
F1.235
F1.04
F31.6
F1.0
tp1684
sS'14,26,XX'
p1685
(F-0.554
F-2.414
F1.2
F1.105
F16.1
F1.0
tp1686
sS'10,11,XX'
p1687
(F-0.077
F-1.816
F1.222
F1.119
F170.9
F1.0
tp1688
sS'4,8,YY'
p1689
(F-1.955
F-0.057
F1.271
F1.083
F137.4
F1.0
tp1690
sS'10,4,YY'
p1691
(F-0.016
F-0.61
F1.165
F0.982
F135.4
F1.0
tp1692
sS'13,4,XX'
p1693
(F-0.12
F-0.707
F1.207
F1.027
F43.5
F1.0
tp1694
sS'4,29,XX'
p1695
(F1.154
F-1.96
F1.196
F0.97
F30.7
F1.0
tp1696
sS'24,33,XX'
p1697
(F2.485
F0.47
F1.152
F1.086
F49.9
F1.0
tp1698
sS'27,31,XX'
p1699
(F2.402
F-0.761
F1.36
F1.059
F46.8
F1.0
tp1700
sS'24,18,YY'
p1701
(F-0.698
F2.437
F1.159
F1.124
F99.5
F1.0
tp1702
sS'30,2,XX'
p1703
(F-0.568
F0.043
F1.233
F1.039
F52.8
F1.0
tp1704
sS'4,14,XX'
p1705
(F1.871
F-0.044
F1.222
F1.108
F39.1
F1.0
tp1706
sS'30,35,YY'
p1707
(F1.377
F1.971
F1.485
F0.932
F137.6
F1.0
tp1708
sS'28,17,YY'
p1709
(F0.04
F3.065
F1.333
F1.088
F146.3
F1.0
tp1710
sS'10,28,XX'
p1711
(F0.496
F-2.583
F1.237
F1.0
F22.6
F1.0
tp1712
sS'16,4,YY'
p1713
(F-0.213
F-0.75
F1.139
F0.995
F132.4
F1.0
tp1714
sS'24,10,YY'
p1715
(F-0.691
F-1.359
F1.283
F1.008
F132.1
F1.0
tp1716
sS'4,6,YY'
p1717
(F-0.695
F1.244
F1.218
F1.099
F146.1
F1.0
tp1718
sS'16,13,YY'
p1719
(F0.0
F0.0
F0.0
F0.0
F0.0
F0.0
tp1720
sS'13,17,XX'
p1721
(F-0.182
F3.107
F1.32
F1.103
F40.2
F1.0
tp1722
sS'2,21,XX'
p1723
(F-2.5615
F0.529
F1.3555
F1.0645
F61.4
F1.0
tp1724
sS'28,11,YY'
p1725
(F0.02
F-1.982
F1.259
F1.078
F137.6
F1.0
tp1726
sS'30,15,YY'
p1727
(F1.38
F0.707
F1.24
F1.054
F127.9
F1.0
tp1728
s.